
kernel/kernel:     file format elf64-littleriscv


Disassembly of section .text:

0000000080000000 <_entry>:
    80000000:	0000a117          	auipc	sp,0xa
    80000004:	18010113          	addi	sp,sp,384 # 8000a180 <stack0>
    80000008:	6505                	lui	a0,0x1
    8000000a:	f14025f3          	csrr	a1,mhartid
    8000000e:	0585                	addi	a1,a1,1
    80000010:	02b50533          	mul	a0,a0,a1
    80000014:	912a                	add	sp,sp,a0
    80000016:	078000ef          	jal	ra,8000008e <start>

000000008000001a <spin>:
    8000001a:	a001                	j	8000001a <spin>

000000008000001c <timerinit>:
// which arrive at timervec in kernelvec.S,
// which turns them into software interrupts for
// devintr() in trap.c.
void
timerinit()
{
    8000001c:	1141                	addi	sp,sp,-16
    8000001e:	e422                	sd	s0,8(sp)
    80000020:	0800                	addi	s0,sp,16
// which hart (core) is this?
static inline uint64
r_mhartid()
{
  uint64 x;
  asm volatile("csrr %0, mhartid" : "=r" (x) );
    80000022:	f14027f3          	csrr	a5,mhartid
  // each CPU has a separate source of timer interrupts.
  int id = r_mhartid();
    80000026:	0007869b          	sext.w	a3,a5

  // ask the CLINT for a timer interrupt.
  int interval = 1000000; // cycles; about 1/10th second in qemu.
  *(uint64*)CLINT_MTIMECMP(id) = *(uint64*)CLINT_MTIME + interval;
    8000002a:	0037979b          	slliw	a5,a5,0x3
    8000002e:	02004737          	lui	a4,0x2004
    80000032:	97ba                	add	a5,a5,a4
    80000034:	0200c737          	lui	a4,0x200c
    80000038:	ff873583          	ld	a1,-8(a4) # 200bff8 <_entry-0x7dff4008>
    8000003c:	000f4637          	lui	a2,0xf4
    80000040:	24060613          	addi	a2,a2,576 # f4240 <_entry-0x7ff0bdc0>
    80000044:	95b2                	add	a1,a1,a2
    80000046:	e38c                	sd	a1,0(a5)

  // prepare information in scratch[] for timervec.
  // scratch[0..2] : space for timervec to save registers.
  // scratch[3] : address of CLINT MTIMECMP register.
  // scratch[4] : desired interval (in cycles) between timer interrupts.
  uint64 *scratch = &timer_scratch[id][0];
    80000048:	00269713          	slli	a4,a3,0x2
    8000004c:	9736                	add	a4,a4,a3
    8000004e:	00371693          	slli	a3,a4,0x3
    80000052:	0000a717          	auipc	a4,0xa
    80000056:	fee70713          	addi	a4,a4,-18 # 8000a040 <timer_scratch>
    8000005a:	9736                	add	a4,a4,a3
  scratch[3] = CLINT_MTIMECMP(id);
    8000005c:	ef1c                	sd	a5,24(a4)
  scratch[4] = interval;
    8000005e:	f310                	sd	a2,32(a4)
}

static inline void 
w_mscratch(uint64 x)
{
  asm volatile("csrw mscratch, %0" : : "r" (x));
    80000060:	34071073          	csrw	mscratch,a4
  asm volatile("csrw mtvec, %0" : : "r" (x));
    80000064:	00007797          	auipc	a5,0x7
    80000068:	a1c78793          	addi	a5,a5,-1508 # 80006a80 <timervec>
    8000006c:	30579073          	csrw	mtvec,a5
  asm volatile("csrr %0, mstatus" : "=r" (x) );
    80000070:	300027f3          	csrr	a5,mstatus

  // set the machine-mode trap handler.
  w_mtvec((uint64)timervec);

  // enable machine-mode interrupts.
  w_mstatus(r_mstatus() | MSTATUS_MIE);
    80000074:	0087e793          	ori	a5,a5,8
  asm volatile("csrw mstatus, %0" : : "r" (x));
    80000078:	30079073          	csrw	mstatus,a5
  asm volatile("csrr %0, mie" : "=r" (x) );
    8000007c:	304027f3          	csrr	a5,mie

  // enable machine-mode timer interrupts.
  w_mie(r_mie() | MIE_MTIE);
    80000080:	0807e793          	ori	a5,a5,128
  asm volatile("csrw mie, %0" : : "r" (x));
    80000084:	30479073          	csrw	mie,a5
}
    80000088:	6422                	ld	s0,8(sp)
    8000008a:	0141                	addi	sp,sp,16
    8000008c:	8082                	ret

000000008000008e <start>:
{
    8000008e:	1141                	addi	sp,sp,-16
    80000090:	e406                	sd	ra,8(sp)
    80000092:	e022                	sd	s0,0(sp)
    80000094:	0800                	addi	s0,sp,16
  asm volatile("csrr %0, mstatus" : "=r" (x) );
    80000096:	300027f3          	csrr	a5,mstatus
  x &= ~MSTATUS_MPP_MASK;
    8000009a:	7779                	lui	a4,0xffffe
    8000009c:	7ff70713          	addi	a4,a4,2047 # ffffffffffffe7ff <end+0xffffffff7ffd07ff>
    800000a0:	8ff9                	and	a5,a5,a4
  x |= MSTATUS_MPP_S;
    800000a2:	6705                	lui	a4,0x1
    800000a4:	80070713          	addi	a4,a4,-2048 # 800 <_entry-0x7ffff800>
    800000a8:	8fd9                	or	a5,a5,a4
  asm volatile("csrw mstatus, %0" : : "r" (x));
    800000aa:	30079073          	csrw	mstatus,a5
  asm volatile("csrw mepc, %0" : : "r" (x));
    800000ae:	00001797          	auipc	a5,0x1
    800000b2:	dbe78793          	addi	a5,a5,-578 # 80000e6c <main>
    800000b6:	34179073          	csrw	mepc,a5
  asm volatile("csrw satp, %0" : : "r" (x));
    800000ba:	4781                	li	a5,0
    800000bc:	18079073          	csrw	satp,a5
  asm volatile("csrw medeleg, %0" : : "r" (x));
    800000c0:	67c1                	lui	a5,0x10
    800000c2:	17fd                	addi	a5,a5,-1
    800000c4:	30279073          	csrw	medeleg,a5
  asm volatile("csrw mideleg, %0" : : "r" (x));
    800000c8:	30379073          	csrw	mideleg,a5
  asm volatile("csrr %0, sie" : "=r" (x) );
    800000cc:	104027f3          	csrr	a5,sie
  w_sie(r_sie() | SIE_SEIE | SIE_STIE | SIE_SSIE);
    800000d0:	2227e793          	ori	a5,a5,546
  asm volatile("csrw sie, %0" : : "r" (x));
    800000d4:	10479073          	csrw	sie,a5
  timerinit();
    800000d8:	00000097          	auipc	ra,0x0
    800000dc:	f44080e7          	jalr	-188(ra) # 8000001c <timerinit>
  asm volatile("csrr %0, mhartid" : "=r" (x) );
    800000e0:	f14027f3          	csrr	a5,mhartid
  w_tp(id);
    800000e4:	2781                	sext.w	a5,a5
}

static inline void 
w_tp(uint64 x)
{
  asm volatile("mv tp, %0" : : "r" (x));
    800000e6:	823e                	mv	tp,a5
  asm volatile("mret");
    800000e8:	30200073          	mret
}
    800000ec:	60a2                	ld	ra,8(sp)
    800000ee:	6402                	ld	s0,0(sp)
    800000f0:	0141                	addi	sp,sp,16
    800000f2:	8082                	ret

00000000800000f4 <consolewrite>:
//
// user write()s to the console go here.
//
int
consolewrite(int user_src, uint64 src, int n)
{
    800000f4:	715d                	addi	sp,sp,-80
    800000f6:	e486                	sd	ra,72(sp)
    800000f8:	e0a2                	sd	s0,64(sp)
    800000fa:	fc26                	sd	s1,56(sp)
    800000fc:	f84a                	sd	s2,48(sp)
    800000fe:	f44e                	sd	s3,40(sp)
    80000100:	f052                	sd	s4,32(sp)
    80000102:	ec56                	sd	s5,24(sp)
    80000104:	0880                	addi	s0,sp,80
  int i;

  for(i = 0; i < n; i++){
    80000106:	04c05663          	blez	a2,80000152 <consolewrite+0x5e>
    8000010a:	8a2a                	mv	s4,a0
    8000010c:	84ae                	mv	s1,a1
    8000010e:	89b2                	mv	s3,a2
    80000110:	4901                	li	s2,0
    char c;
    if(either_copyin(&c, user_src, src+i, 1) == -1)
    80000112:	5afd                	li	s5,-1
    80000114:	4685                	li	a3,1
    80000116:	8626                	mv	a2,s1
    80000118:	85d2                	mv	a1,s4
    8000011a:	fbf40513          	addi	a0,s0,-65
    8000011e:	00003097          	auipc	ra,0x3
    80000122:	cf2080e7          	jalr	-782(ra) # 80002e10 <either_copyin>
    80000126:	01550c63          	beq	a0,s5,8000013e <consolewrite+0x4a>
      break;
    uartputc(c);
    8000012a:	fbf44503          	lbu	a0,-65(s0)
    8000012e:	00000097          	auipc	ra,0x0
    80000132:	77a080e7          	jalr	1914(ra) # 800008a8 <uartputc>
  for(i = 0; i < n; i++){
    80000136:	2905                	addiw	s2,s2,1
    80000138:	0485                	addi	s1,s1,1
    8000013a:	fd299de3          	bne	s3,s2,80000114 <consolewrite+0x20>
  }

  return i;
}
    8000013e:	854a                	mv	a0,s2
    80000140:	60a6                	ld	ra,72(sp)
    80000142:	6406                	ld	s0,64(sp)
    80000144:	74e2                	ld	s1,56(sp)
    80000146:	7942                	ld	s2,48(sp)
    80000148:	79a2                	ld	s3,40(sp)
    8000014a:	7a02                	ld	s4,32(sp)
    8000014c:	6ae2                	ld	s5,24(sp)
    8000014e:	6161                	addi	sp,sp,80
    80000150:	8082                	ret
  for(i = 0; i < n; i++){
    80000152:	4901                	li	s2,0
    80000154:	b7ed                	j	8000013e <consolewrite+0x4a>

0000000080000156 <consoleread>:
// user_dist indicates whether dst is a user
// or kernel address.
//
int
consoleread(int user_dst, uint64 dst, int n)
{
    80000156:	7159                	addi	sp,sp,-112
    80000158:	f486                	sd	ra,104(sp)
    8000015a:	f0a2                	sd	s0,96(sp)
    8000015c:	eca6                	sd	s1,88(sp)
    8000015e:	e8ca                	sd	s2,80(sp)
    80000160:	e4ce                	sd	s3,72(sp)
    80000162:	e0d2                	sd	s4,64(sp)
    80000164:	fc56                	sd	s5,56(sp)
    80000166:	f85a                	sd	s6,48(sp)
    80000168:	f45e                	sd	s7,40(sp)
    8000016a:	f062                	sd	s8,32(sp)
    8000016c:	ec66                	sd	s9,24(sp)
    8000016e:	e86a                	sd	s10,16(sp)
    80000170:	1880                	addi	s0,sp,112
    80000172:	8aaa                	mv	s5,a0
    80000174:	8a2e                	mv	s4,a1
    80000176:	89b2                	mv	s3,a2
  uint target;
  int c;
  char cbuf;

  target = n;
    80000178:	00060b1b          	sext.w	s6,a2
  acquire(&cons.lock);
    8000017c:	00012517          	auipc	a0,0x12
    80000180:	00450513          	addi	a0,a0,4 # 80012180 <cons>
    80000184:	00001097          	auipc	ra,0x1
    80000188:	a3e080e7          	jalr	-1474(ra) # 80000bc2 <acquire>
  while(n > 0){
    // wait until interrupt handler has put some
    // input into cons.buffer.
    while(cons.r == cons.w){
    8000018c:	00012497          	auipc	s1,0x12
    80000190:	ff448493          	addi	s1,s1,-12 # 80012180 <cons>
      if(myproc()->killed){
        release(&cons.lock);
        return -1;
      }
      sleep(&cons.r, &cons.lock);
    80000194:	00012917          	auipc	s2,0x12
    80000198:	08490913          	addi	s2,s2,132 # 80012218 <cons+0x98>
    }

    c = cons.buf[cons.r++ % INPUT_BUF];

    if(c == C('D')){  // end-of-file
    8000019c:	4b91                	li	s7,4
      break;
    }

    // copy the input byte to the user-space buffer.
    cbuf = c;
    if(either_copyout(user_dst, dst, &cbuf, 1) == -1)
    8000019e:	5c7d                	li	s8,-1
      break;

    dst++;
    --n;

    if(c == '\n'){
    800001a0:	4ca9                	li	s9,10
  while(n > 0){
    800001a2:	07305863          	blez	s3,80000212 <consoleread+0xbc>
    while(cons.r == cons.w){
    800001a6:	0984a783          	lw	a5,152(s1)
    800001aa:	09c4a703          	lw	a4,156(s1)
    800001ae:	02f71463          	bne	a4,a5,800001d6 <consoleread+0x80>
      if(myproc()->killed){
    800001b2:	00002097          	auipc	ra,0x2
    800001b6:	052080e7          	jalr	82(ra) # 80002204 <myproc>
    800001ba:	551c                	lw	a5,40(a0)
    800001bc:	e7b5                	bnez	a5,80000228 <consoleread+0xd2>
      sleep(&cons.r, &cons.lock);
    800001be:	85a6                	mv	a1,s1
    800001c0:	854a                	mv	a0,s2
    800001c2:	00003097          	auipc	ra,0x3
    800001c6:	83e080e7          	jalr	-1986(ra) # 80002a00 <sleep>
    while(cons.r == cons.w){
    800001ca:	0984a783          	lw	a5,152(s1)
    800001ce:	09c4a703          	lw	a4,156(s1)
    800001d2:	fef700e3          	beq	a4,a5,800001b2 <consoleread+0x5c>
    c = cons.buf[cons.r++ % INPUT_BUF];
    800001d6:	0017871b          	addiw	a4,a5,1
    800001da:	08e4ac23          	sw	a4,152(s1)
    800001de:	07f7f713          	andi	a4,a5,127
    800001e2:	9726                	add	a4,a4,s1
    800001e4:	01874703          	lbu	a4,24(a4)
    800001e8:	00070d1b          	sext.w	s10,a4
    if(c == C('D')){  // end-of-file
    800001ec:	077d0563          	beq	s10,s7,80000256 <consoleread+0x100>
    cbuf = c;
    800001f0:	f8e40fa3          	sb	a4,-97(s0)
    if(either_copyout(user_dst, dst, &cbuf, 1) == -1)
    800001f4:	4685                	li	a3,1
    800001f6:	f9f40613          	addi	a2,s0,-97
    800001fa:	85d2                	mv	a1,s4
    800001fc:	8556                	mv	a0,s5
    800001fe:	00003097          	auipc	ra,0x3
    80000202:	bbc080e7          	jalr	-1092(ra) # 80002dba <either_copyout>
    80000206:	01850663          	beq	a0,s8,80000212 <consoleread+0xbc>
    dst++;
    8000020a:	0a05                	addi	s4,s4,1
    --n;
    8000020c:	39fd                	addiw	s3,s3,-1
    if(c == '\n'){
    8000020e:	f99d1ae3          	bne	s10,s9,800001a2 <consoleread+0x4c>
      // a whole line has arrived, return to
      // the user-level read().
      break;
    }
  }
  release(&cons.lock);
    80000212:	00012517          	auipc	a0,0x12
    80000216:	f6e50513          	addi	a0,a0,-146 # 80012180 <cons>
    8000021a:	00001097          	auipc	ra,0x1
    8000021e:	a5c080e7          	jalr	-1444(ra) # 80000c76 <release>

  return target - n;
    80000222:	413b053b          	subw	a0,s6,s3
    80000226:	a811                	j	8000023a <consoleread+0xe4>
        release(&cons.lock);
    80000228:	00012517          	auipc	a0,0x12
    8000022c:	f5850513          	addi	a0,a0,-168 # 80012180 <cons>
    80000230:	00001097          	auipc	ra,0x1
    80000234:	a46080e7          	jalr	-1466(ra) # 80000c76 <release>
        return -1;
    80000238:	557d                	li	a0,-1
}
    8000023a:	70a6                	ld	ra,104(sp)
    8000023c:	7406                	ld	s0,96(sp)
    8000023e:	64e6                	ld	s1,88(sp)
    80000240:	6946                	ld	s2,80(sp)
    80000242:	69a6                	ld	s3,72(sp)
    80000244:	6a06                	ld	s4,64(sp)
    80000246:	7ae2                	ld	s5,56(sp)
    80000248:	7b42                	ld	s6,48(sp)
    8000024a:	7ba2                	ld	s7,40(sp)
    8000024c:	7c02                	ld	s8,32(sp)
    8000024e:	6ce2                	ld	s9,24(sp)
    80000250:	6d42                	ld	s10,16(sp)
    80000252:	6165                	addi	sp,sp,112
    80000254:	8082                	ret
      if(n < target){
    80000256:	0009871b          	sext.w	a4,s3
    8000025a:	fb677ce3          	bgeu	a4,s6,80000212 <consoleread+0xbc>
        cons.r--;
    8000025e:	00012717          	auipc	a4,0x12
    80000262:	faf72d23          	sw	a5,-70(a4) # 80012218 <cons+0x98>
    80000266:	b775                	j	80000212 <consoleread+0xbc>

0000000080000268 <consputc>:
{
    80000268:	1141                	addi	sp,sp,-16
    8000026a:	e406                	sd	ra,8(sp)
    8000026c:	e022                	sd	s0,0(sp)
    8000026e:	0800                	addi	s0,sp,16
  if(c == BACKSPACE){
    80000270:	10000793          	li	a5,256
    80000274:	00f50a63          	beq	a0,a5,80000288 <consputc+0x20>
    uartputc_sync(c);
    80000278:	00000097          	auipc	ra,0x0
    8000027c:	55e080e7          	jalr	1374(ra) # 800007d6 <uartputc_sync>
}
    80000280:	60a2                	ld	ra,8(sp)
    80000282:	6402                	ld	s0,0(sp)
    80000284:	0141                	addi	sp,sp,16
    80000286:	8082                	ret
    uartputc_sync('\b'); uartputc_sync(' '); uartputc_sync('\b');
    80000288:	4521                	li	a0,8
    8000028a:	00000097          	auipc	ra,0x0
    8000028e:	54c080e7          	jalr	1356(ra) # 800007d6 <uartputc_sync>
    80000292:	02000513          	li	a0,32
    80000296:	00000097          	auipc	ra,0x0
    8000029a:	540080e7          	jalr	1344(ra) # 800007d6 <uartputc_sync>
    8000029e:	4521                	li	a0,8
    800002a0:	00000097          	auipc	ra,0x0
    800002a4:	536080e7          	jalr	1334(ra) # 800007d6 <uartputc_sync>
    800002a8:	bfe1                	j	80000280 <consputc+0x18>

00000000800002aa <consoleintr>:
// do erase/kill processing, append to cons.buf,
// wake up consoleread() if a whole line has arrived.
//
void
consoleintr(int c)
{
    800002aa:	1101                	addi	sp,sp,-32
    800002ac:	ec06                	sd	ra,24(sp)
    800002ae:	e822                	sd	s0,16(sp)
    800002b0:	e426                	sd	s1,8(sp)
    800002b2:	e04a                	sd	s2,0(sp)
    800002b4:	1000                	addi	s0,sp,32
    800002b6:	84aa                	mv	s1,a0
  acquire(&cons.lock);
    800002b8:	00012517          	auipc	a0,0x12
    800002bc:	ec850513          	addi	a0,a0,-312 # 80012180 <cons>
    800002c0:	00001097          	auipc	ra,0x1
    800002c4:	902080e7          	jalr	-1790(ra) # 80000bc2 <acquire>

  switch(c){
    800002c8:	47d5                	li	a5,21
    800002ca:	0af48663          	beq	s1,a5,80000376 <consoleintr+0xcc>
    800002ce:	0297ca63          	blt	a5,s1,80000302 <consoleintr+0x58>
    800002d2:	47a1                	li	a5,8
    800002d4:	0ef48763          	beq	s1,a5,800003c2 <consoleintr+0x118>
    800002d8:	47c1                	li	a5,16
    800002da:	10f49a63          	bne	s1,a5,800003ee <consoleintr+0x144>
  case C('P'):  // Print process list.
    procdump();
    800002de:	00003097          	auipc	ra,0x3
    800002e2:	b88080e7          	jalr	-1144(ra) # 80002e66 <procdump>
      }
    }
    break;
  }
  
  release(&cons.lock);
    800002e6:	00012517          	auipc	a0,0x12
    800002ea:	e9a50513          	addi	a0,a0,-358 # 80012180 <cons>
    800002ee:	00001097          	auipc	ra,0x1
    800002f2:	988080e7          	jalr	-1656(ra) # 80000c76 <release>
}
    800002f6:	60e2                	ld	ra,24(sp)
    800002f8:	6442                	ld	s0,16(sp)
    800002fa:	64a2                	ld	s1,8(sp)
    800002fc:	6902                	ld	s2,0(sp)
    800002fe:	6105                	addi	sp,sp,32
    80000300:	8082                	ret
  switch(c){
    80000302:	07f00793          	li	a5,127
    80000306:	0af48e63          	beq	s1,a5,800003c2 <consoleintr+0x118>
    if(c != 0 && cons.e-cons.r < INPUT_BUF){
    8000030a:	00012717          	auipc	a4,0x12
    8000030e:	e7670713          	addi	a4,a4,-394 # 80012180 <cons>
    80000312:	0a072783          	lw	a5,160(a4)
    80000316:	09872703          	lw	a4,152(a4)
    8000031a:	9f99                	subw	a5,a5,a4
    8000031c:	07f00713          	li	a4,127
    80000320:	fcf763e3          	bltu	a4,a5,800002e6 <consoleintr+0x3c>
      c = (c == '\r') ? '\n' : c;
    80000324:	47b5                	li	a5,13
    80000326:	0cf48763          	beq	s1,a5,800003f4 <consoleintr+0x14a>
      consputc(c);
    8000032a:	8526                	mv	a0,s1
    8000032c:	00000097          	auipc	ra,0x0
    80000330:	f3c080e7          	jalr	-196(ra) # 80000268 <consputc>
      cons.buf[cons.e++ % INPUT_BUF] = c;
    80000334:	00012797          	auipc	a5,0x12
    80000338:	e4c78793          	addi	a5,a5,-436 # 80012180 <cons>
    8000033c:	0a07a703          	lw	a4,160(a5)
    80000340:	0017069b          	addiw	a3,a4,1
    80000344:	0006861b          	sext.w	a2,a3
    80000348:	0ad7a023          	sw	a3,160(a5)
    8000034c:	07f77713          	andi	a4,a4,127
    80000350:	97ba                	add	a5,a5,a4
    80000352:	00978c23          	sb	s1,24(a5)
      if(c == '\n' || c == C('D') || cons.e == cons.r+INPUT_BUF){
    80000356:	47a9                	li	a5,10
    80000358:	0cf48563          	beq	s1,a5,80000422 <consoleintr+0x178>
    8000035c:	4791                	li	a5,4
    8000035e:	0cf48263          	beq	s1,a5,80000422 <consoleintr+0x178>
    80000362:	00012797          	auipc	a5,0x12
    80000366:	eb67a783          	lw	a5,-330(a5) # 80012218 <cons+0x98>
    8000036a:	0807879b          	addiw	a5,a5,128
    8000036e:	f6f61ce3          	bne	a2,a5,800002e6 <consoleintr+0x3c>
      cons.buf[cons.e++ % INPUT_BUF] = c;
    80000372:	863e                	mv	a2,a5
    80000374:	a07d                	j	80000422 <consoleintr+0x178>
    while(cons.e != cons.w &&
    80000376:	00012717          	auipc	a4,0x12
    8000037a:	e0a70713          	addi	a4,a4,-502 # 80012180 <cons>
    8000037e:	0a072783          	lw	a5,160(a4)
    80000382:	09c72703          	lw	a4,156(a4)
          cons.buf[(cons.e-1) % INPUT_BUF] != '\n'){
    80000386:	00012497          	auipc	s1,0x12
    8000038a:	dfa48493          	addi	s1,s1,-518 # 80012180 <cons>
    while(cons.e != cons.w &&
    8000038e:	4929                	li	s2,10
    80000390:	f4f70be3          	beq	a4,a5,800002e6 <consoleintr+0x3c>
          cons.buf[(cons.e-1) % INPUT_BUF] != '\n'){
    80000394:	37fd                	addiw	a5,a5,-1
    80000396:	07f7f713          	andi	a4,a5,127
    8000039a:	9726                	add	a4,a4,s1
    while(cons.e != cons.w &&
    8000039c:	01874703          	lbu	a4,24(a4)
    800003a0:	f52703e3          	beq	a4,s2,800002e6 <consoleintr+0x3c>
      cons.e--;
    800003a4:	0af4a023          	sw	a5,160(s1)
      consputc(BACKSPACE);
    800003a8:	10000513          	li	a0,256
    800003ac:	00000097          	auipc	ra,0x0
    800003b0:	ebc080e7          	jalr	-324(ra) # 80000268 <consputc>
    while(cons.e != cons.w &&
    800003b4:	0a04a783          	lw	a5,160(s1)
    800003b8:	09c4a703          	lw	a4,156(s1)
    800003bc:	fcf71ce3          	bne	a4,a5,80000394 <consoleintr+0xea>
    800003c0:	b71d                	j	800002e6 <consoleintr+0x3c>
    if(cons.e != cons.w){
    800003c2:	00012717          	auipc	a4,0x12
    800003c6:	dbe70713          	addi	a4,a4,-578 # 80012180 <cons>
    800003ca:	0a072783          	lw	a5,160(a4)
    800003ce:	09c72703          	lw	a4,156(a4)
    800003d2:	f0f70ae3          	beq	a4,a5,800002e6 <consoleintr+0x3c>
      cons.e--;
    800003d6:	37fd                	addiw	a5,a5,-1
    800003d8:	00012717          	auipc	a4,0x12
    800003dc:	e4f72423          	sw	a5,-440(a4) # 80012220 <cons+0xa0>
      consputc(BACKSPACE);
    800003e0:	10000513          	li	a0,256
    800003e4:	00000097          	auipc	ra,0x0
    800003e8:	e84080e7          	jalr	-380(ra) # 80000268 <consputc>
    800003ec:	bded                	j	800002e6 <consoleintr+0x3c>
    if(c != 0 && cons.e-cons.r < INPUT_BUF){
    800003ee:	ee048ce3          	beqz	s1,800002e6 <consoleintr+0x3c>
    800003f2:	bf21                	j	8000030a <consoleintr+0x60>
      consputc(c);
    800003f4:	4529                	li	a0,10
    800003f6:	00000097          	auipc	ra,0x0
    800003fa:	e72080e7          	jalr	-398(ra) # 80000268 <consputc>
      cons.buf[cons.e++ % INPUT_BUF] = c;
    800003fe:	00012797          	auipc	a5,0x12
    80000402:	d8278793          	addi	a5,a5,-638 # 80012180 <cons>
    80000406:	0a07a703          	lw	a4,160(a5)
    8000040a:	0017069b          	addiw	a3,a4,1
    8000040e:	0006861b          	sext.w	a2,a3
    80000412:	0ad7a023          	sw	a3,160(a5)
    80000416:	07f77713          	andi	a4,a4,127
    8000041a:	97ba                	add	a5,a5,a4
    8000041c:	4729                	li	a4,10
    8000041e:	00e78c23          	sb	a4,24(a5)
        cons.w = cons.e;
    80000422:	00012797          	auipc	a5,0x12
    80000426:	dec7ad23          	sw	a2,-518(a5) # 8001221c <cons+0x9c>
        wakeup(&cons.r);
    8000042a:	00012517          	auipc	a0,0x12
    8000042e:	dee50513          	addi	a0,a0,-530 # 80012218 <cons+0x98>
    80000432:	00002097          	auipc	ra,0x2
    80000436:	75a080e7          	jalr	1882(ra) # 80002b8c <wakeup>
    8000043a:	b575                	j	800002e6 <consoleintr+0x3c>

000000008000043c <consoleinit>:

void
consoleinit(void)
{
    8000043c:	1141                	addi	sp,sp,-16
    8000043e:	e406                	sd	ra,8(sp)
    80000440:	e022                	sd	s0,0(sp)
    80000442:	0800                	addi	s0,sp,16
  initlock(&cons.lock, "cons");
    80000444:	00009597          	auipc	a1,0x9
    80000448:	bcc58593          	addi	a1,a1,-1076 # 80009010 <etext+0x10>
    8000044c:	00012517          	auipc	a0,0x12
    80000450:	d3450513          	addi	a0,a0,-716 # 80012180 <cons>
    80000454:	00000097          	auipc	ra,0x0
    80000458:	6de080e7          	jalr	1758(ra) # 80000b32 <initlock>

  uartinit();
    8000045c:	00000097          	auipc	ra,0x0
    80000460:	32a080e7          	jalr	810(ra) # 80000786 <uartinit>

  // connect read and write system calls
  // to consoleread and consolewrite.
  devsw[CONSOLE].read = consoleread;
    80000464:	00029797          	auipc	a5,0x29
    80000468:	4b478793          	addi	a5,a5,1204 # 80029918 <devsw>
    8000046c:	00000717          	auipc	a4,0x0
    80000470:	cea70713          	addi	a4,a4,-790 # 80000156 <consoleread>
    80000474:	eb98                	sd	a4,16(a5)
  devsw[CONSOLE].write = consolewrite;
    80000476:	00000717          	auipc	a4,0x0
    8000047a:	c7e70713          	addi	a4,a4,-898 # 800000f4 <consolewrite>
    8000047e:	ef98                	sd	a4,24(a5)
}
    80000480:	60a2                	ld	ra,8(sp)
    80000482:	6402                	ld	s0,0(sp)
    80000484:	0141                	addi	sp,sp,16
    80000486:	8082                	ret

0000000080000488 <printint>:

static char digits[] = "0123456789abcdef";

static void
printint(int xx, int base, int sign)
{
    80000488:	7179                	addi	sp,sp,-48
    8000048a:	f406                	sd	ra,40(sp)
    8000048c:	f022                	sd	s0,32(sp)
    8000048e:	ec26                	sd	s1,24(sp)
    80000490:	e84a                	sd	s2,16(sp)
    80000492:	1800                	addi	s0,sp,48
  char buf[16];
  int i;
  uint x;

  if(sign && (sign = xx < 0))
    80000494:	c219                	beqz	a2,8000049a <printint+0x12>
    80000496:	08054663          	bltz	a0,80000522 <printint+0x9a>
    x = -xx;
  else
    x = xx;
    8000049a:	2501                	sext.w	a0,a0
    8000049c:	4881                	li	a7,0
    8000049e:	fd040693          	addi	a3,s0,-48

  i = 0;
    800004a2:	4701                	li	a4,0
  do {
    buf[i++] = digits[x % base];
    800004a4:	2581                	sext.w	a1,a1
    800004a6:	00009617          	auipc	a2,0x9
    800004aa:	b9a60613          	addi	a2,a2,-1126 # 80009040 <digits>
    800004ae:	883a                	mv	a6,a4
    800004b0:	2705                	addiw	a4,a4,1
    800004b2:	02b577bb          	remuw	a5,a0,a1
    800004b6:	1782                	slli	a5,a5,0x20
    800004b8:	9381                	srli	a5,a5,0x20
    800004ba:	97b2                	add	a5,a5,a2
    800004bc:	0007c783          	lbu	a5,0(a5)
    800004c0:	00f68023          	sb	a5,0(a3)
  } while((x /= base) != 0);
    800004c4:	0005079b          	sext.w	a5,a0
    800004c8:	02b5553b          	divuw	a0,a0,a1
    800004cc:	0685                	addi	a3,a3,1
    800004ce:	feb7f0e3          	bgeu	a5,a1,800004ae <printint+0x26>

  if(sign)
    800004d2:	00088b63          	beqz	a7,800004e8 <printint+0x60>
    buf[i++] = '-';
    800004d6:	fe040793          	addi	a5,s0,-32
    800004da:	973e                	add	a4,a4,a5
    800004dc:	02d00793          	li	a5,45
    800004e0:	fef70823          	sb	a5,-16(a4)
    800004e4:	0028071b          	addiw	a4,a6,2

  while(--i >= 0)
    800004e8:	02e05763          	blez	a4,80000516 <printint+0x8e>
    800004ec:	fd040793          	addi	a5,s0,-48
    800004f0:	00e784b3          	add	s1,a5,a4
    800004f4:	fff78913          	addi	s2,a5,-1
    800004f8:	993a                	add	s2,s2,a4
    800004fa:	377d                	addiw	a4,a4,-1
    800004fc:	1702                	slli	a4,a4,0x20
    800004fe:	9301                	srli	a4,a4,0x20
    80000500:	40e90933          	sub	s2,s2,a4
    consputc(buf[i]);
    80000504:	fff4c503          	lbu	a0,-1(s1)
    80000508:	00000097          	auipc	ra,0x0
    8000050c:	d60080e7          	jalr	-672(ra) # 80000268 <consputc>
  while(--i >= 0)
    80000510:	14fd                	addi	s1,s1,-1
    80000512:	ff2499e3          	bne	s1,s2,80000504 <printint+0x7c>
}
    80000516:	70a2                	ld	ra,40(sp)
    80000518:	7402                	ld	s0,32(sp)
    8000051a:	64e2                	ld	s1,24(sp)
    8000051c:	6942                	ld	s2,16(sp)
    8000051e:	6145                	addi	sp,sp,48
    80000520:	8082                	ret
    x = -xx;
    80000522:	40a0053b          	negw	a0,a0
  if(sign && (sign = xx < 0))
    80000526:	4885                	li	a7,1
    x = -xx;
    80000528:	bf9d                	j	8000049e <printint+0x16>

000000008000052a <panic>:
    release(&pr.lock);
}

void
panic(char *s)
{
    8000052a:	1101                	addi	sp,sp,-32
    8000052c:	ec06                	sd	ra,24(sp)
    8000052e:	e822                	sd	s0,16(sp)
    80000530:	e426                	sd	s1,8(sp)
    80000532:	1000                	addi	s0,sp,32
    80000534:	84aa                	mv	s1,a0
  pr.locking = 0;
    80000536:	00012797          	auipc	a5,0x12
    8000053a:	d007a523          	sw	zero,-758(a5) # 80012240 <pr+0x18>
  printf("panic: ");
    8000053e:	00009517          	auipc	a0,0x9
    80000542:	ada50513          	addi	a0,a0,-1318 # 80009018 <etext+0x18>
    80000546:	00000097          	auipc	ra,0x0
    8000054a:	02e080e7          	jalr	46(ra) # 80000574 <printf>
  printf(s);
    8000054e:	8526                	mv	a0,s1
    80000550:	00000097          	auipc	ra,0x0
    80000554:	024080e7          	jalr	36(ra) # 80000574 <printf>
  printf("\n");
    80000558:	00009517          	auipc	a0,0x9
    8000055c:	e8050513          	addi	a0,a0,-384 # 800093d8 <digits+0x398>
    80000560:	00000097          	auipc	ra,0x0
    80000564:	014080e7          	jalr	20(ra) # 80000574 <printf>
  panicked = 1; // freeze uart output from other CPUs
    80000568:	4785                	li	a5,1
    8000056a:	0000a717          	auipc	a4,0xa
    8000056e:	a8f72b23          	sw	a5,-1386(a4) # 8000a000 <panicked>
  for(;;)
    80000572:	a001                	j	80000572 <panic+0x48>

0000000080000574 <printf>:
{
    80000574:	7131                	addi	sp,sp,-192
    80000576:	fc86                	sd	ra,120(sp)
    80000578:	f8a2                	sd	s0,112(sp)
    8000057a:	f4a6                	sd	s1,104(sp)
    8000057c:	f0ca                	sd	s2,96(sp)
    8000057e:	ecce                	sd	s3,88(sp)
    80000580:	e8d2                	sd	s4,80(sp)
    80000582:	e4d6                	sd	s5,72(sp)
    80000584:	e0da                	sd	s6,64(sp)
    80000586:	fc5e                	sd	s7,56(sp)
    80000588:	f862                	sd	s8,48(sp)
    8000058a:	f466                	sd	s9,40(sp)
    8000058c:	f06a                	sd	s10,32(sp)
    8000058e:	ec6e                	sd	s11,24(sp)
    80000590:	0100                	addi	s0,sp,128
    80000592:	8a2a                	mv	s4,a0
    80000594:	e40c                	sd	a1,8(s0)
    80000596:	e810                	sd	a2,16(s0)
    80000598:	ec14                	sd	a3,24(s0)
    8000059a:	f018                	sd	a4,32(s0)
    8000059c:	f41c                	sd	a5,40(s0)
    8000059e:	03043823          	sd	a6,48(s0)
    800005a2:	03143c23          	sd	a7,56(s0)
  locking = pr.locking;
    800005a6:	00012d97          	auipc	s11,0x12
    800005aa:	c9adad83          	lw	s11,-870(s11) # 80012240 <pr+0x18>
  if(locking)
    800005ae:	020d9b63          	bnez	s11,800005e4 <printf+0x70>
  if (fmt == 0)
    800005b2:	040a0263          	beqz	s4,800005f6 <printf+0x82>
  va_start(ap, fmt);
    800005b6:	00840793          	addi	a5,s0,8
    800005ba:	f8f43423          	sd	a5,-120(s0)
  for(i = 0; (c = fmt[i] & 0xff) != 0; i++){
    800005be:	000a4503          	lbu	a0,0(s4)
    800005c2:	14050f63          	beqz	a0,80000720 <printf+0x1ac>
    800005c6:	4981                	li	s3,0
    if(c != '%'){
    800005c8:	02500a93          	li	s5,37
    switch(c){
    800005cc:	07000b93          	li	s7,112
  consputc('x');
    800005d0:	4d41                	li	s10,16
    consputc(digits[x >> (sizeof(uint64) * 8 - 4)]);
    800005d2:	00009b17          	auipc	s6,0x9
    800005d6:	a6eb0b13          	addi	s6,s6,-1426 # 80009040 <digits>
    switch(c){
    800005da:	07300c93          	li	s9,115
    800005de:	06400c13          	li	s8,100
    800005e2:	a82d                	j	8000061c <printf+0xa8>
    acquire(&pr.lock);
    800005e4:	00012517          	auipc	a0,0x12
    800005e8:	c4450513          	addi	a0,a0,-956 # 80012228 <pr>
    800005ec:	00000097          	auipc	ra,0x0
    800005f0:	5d6080e7          	jalr	1494(ra) # 80000bc2 <acquire>
    800005f4:	bf7d                	j	800005b2 <printf+0x3e>
    panic("null fmt");
    800005f6:	00009517          	auipc	a0,0x9
    800005fa:	a3250513          	addi	a0,a0,-1486 # 80009028 <etext+0x28>
    800005fe:	00000097          	auipc	ra,0x0
    80000602:	f2c080e7          	jalr	-212(ra) # 8000052a <panic>
      consputc(c);
    80000606:	00000097          	auipc	ra,0x0
    8000060a:	c62080e7          	jalr	-926(ra) # 80000268 <consputc>
  for(i = 0; (c = fmt[i] & 0xff) != 0; i++){
    8000060e:	2985                	addiw	s3,s3,1
    80000610:	013a07b3          	add	a5,s4,s3
    80000614:	0007c503          	lbu	a0,0(a5)
    80000618:	10050463          	beqz	a0,80000720 <printf+0x1ac>
    if(c != '%'){
    8000061c:	ff5515e3          	bne	a0,s5,80000606 <printf+0x92>
    c = fmt[++i] & 0xff;
    80000620:	2985                	addiw	s3,s3,1
    80000622:	013a07b3          	add	a5,s4,s3
    80000626:	0007c783          	lbu	a5,0(a5)
    8000062a:	0007849b          	sext.w	s1,a5
    if(c == 0)
    8000062e:	cbed                	beqz	a5,80000720 <printf+0x1ac>
    switch(c){
    80000630:	05778a63          	beq	a5,s7,80000684 <printf+0x110>
    80000634:	02fbf663          	bgeu	s7,a5,80000660 <printf+0xec>
    80000638:	09978863          	beq	a5,s9,800006c8 <printf+0x154>
    8000063c:	07800713          	li	a4,120
    80000640:	0ce79563          	bne	a5,a4,8000070a <printf+0x196>
      printint(va_arg(ap, int), 16, 1);
    80000644:	f8843783          	ld	a5,-120(s0)
    80000648:	00878713          	addi	a4,a5,8
    8000064c:	f8e43423          	sd	a4,-120(s0)
    80000650:	4605                	li	a2,1
    80000652:	85ea                	mv	a1,s10
    80000654:	4388                	lw	a0,0(a5)
    80000656:	00000097          	auipc	ra,0x0
    8000065a:	e32080e7          	jalr	-462(ra) # 80000488 <printint>
      break;
    8000065e:	bf45                	j	8000060e <printf+0x9a>
    switch(c){
    80000660:	09578f63          	beq	a5,s5,800006fe <printf+0x18a>
    80000664:	0b879363          	bne	a5,s8,8000070a <printf+0x196>
      printint(va_arg(ap, int), 10, 1);
    80000668:	f8843783          	ld	a5,-120(s0)
    8000066c:	00878713          	addi	a4,a5,8
    80000670:	f8e43423          	sd	a4,-120(s0)
    80000674:	4605                	li	a2,1
    80000676:	45a9                	li	a1,10
    80000678:	4388                	lw	a0,0(a5)
    8000067a:	00000097          	auipc	ra,0x0
    8000067e:	e0e080e7          	jalr	-498(ra) # 80000488 <printint>
      break;
    80000682:	b771                	j	8000060e <printf+0x9a>
      printptr(va_arg(ap, uint64));
    80000684:	f8843783          	ld	a5,-120(s0)
    80000688:	00878713          	addi	a4,a5,8
    8000068c:	f8e43423          	sd	a4,-120(s0)
    80000690:	0007b903          	ld	s2,0(a5)
  consputc('0');
    80000694:	03000513          	li	a0,48
    80000698:	00000097          	auipc	ra,0x0
    8000069c:	bd0080e7          	jalr	-1072(ra) # 80000268 <consputc>
  consputc('x');
    800006a0:	07800513          	li	a0,120
    800006a4:	00000097          	auipc	ra,0x0
    800006a8:	bc4080e7          	jalr	-1084(ra) # 80000268 <consputc>
    800006ac:	84ea                	mv	s1,s10
    consputc(digits[x >> (sizeof(uint64) * 8 - 4)]);
    800006ae:	03c95793          	srli	a5,s2,0x3c
    800006b2:	97da                	add	a5,a5,s6
    800006b4:	0007c503          	lbu	a0,0(a5)
    800006b8:	00000097          	auipc	ra,0x0
    800006bc:	bb0080e7          	jalr	-1104(ra) # 80000268 <consputc>
  for (i = 0; i < (sizeof(uint64) * 2); i++, x <<= 4)
    800006c0:	0912                	slli	s2,s2,0x4
    800006c2:	34fd                	addiw	s1,s1,-1
    800006c4:	f4ed                	bnez	s1,800006ae <printf+0x13a>
    800006c6:	b7a1                	j	8000060e <printf+0x9a>
      if((s = va_arg(ap, char*)) == 0)
    800006c8:	f8843783          	ld	a5,-120(s0)
    800006cc:	00878713          	addi	a4,a5,8
    800006d0:	f8e43423          	sd	a4,-120(s0)
    800006d4:	6384                	ld	s1,0(a5)
    800006d6:	cc89                	beqz	s1,800006f0 <printf+0x17c>
      for(; *s; s++)
    800006d8:	0004c503          	lbu	a0,0(s1)
    800006dc:	d90d                	beqz	a0,8000060e <printf+0x9a>
        consputc(*s);
    800006de:	00000097          	auipc	ra,0x0
    800006e2:	b8a080e7          	jalr	-1142(ra) # 80000268 <consputc>
      for(; *s; s++)
    800006e6:	0485                	addi	s1,s1,1
    800006e8:	0004c503          	lbu	a0,0(s1)
    800006ec:	f96d                	bnez	a0,800006de <printf+0x16a>
    800006ee:	b705                	j	8000060e <printf+0x9a>
        s = "(null)";
    800006f0:	00009497          	auipc	s1,0x9
    800006f4:	93048493          	addi	s1,s1,-1744 # 80009020 <etext+0x20>
      for(; *s; s++)
    800006f8:	02800513          	li	a0,40
    800006fc:	b7cd                	j	800006de <printf+0x16a>
      consputc('%');
    800006fe:	8556                	mv	a0,s5
    80000700:	00000097          	auipc	ra,0x0
    80000704:	b68080e7          	jalr	-1176(ra) # 80000268 <consputc>
      break;
    80000708:	b719                	j	8000060e <printf+0x9a>
      consputc('%');
    8000070a:	8556                	mv	a0,s5
    8000070c:	00000097          	auipc	ra,0x0
    80000710:	b5c080e7          	jalr	-1188(ra) # 80000268 <consputc>
      consputc(c);
    80000714:	8526                	mv	a0,s1
    80000716:	00000097          	auipc	ra,0x0
    8000071a:	b52080e7          	jalr	-1198(ra) # 80000268 <consputc>
      break;
    8000071e:	bdc5                	j	8000060e <printf+0x9a>
  if(locking)
    80000720:	020d9163          	bnez	s11,80000742 <printf+0x1ce>
}
    80000724:	70e6                	ld	ra,120(sp)
    80000726:	7446                	ld	s0,112(sp)
    80000728:	74a6                	ld	s1,104(sp)
    8000072a:	7906                	ld	s2,96(sp)
    8000072c:	69e6                	ld	s3,88(sp)
    8000072e:	6a46                	ld	s4,80(sp)
    80000730:	6aa6                	ld	s5,72(sp)
    80000732:	6b06                	ld	s6,64(sp)
    80000734:	7be2                	ld	s7,56(sp)
    80000736:	7c42                	ld	s8,48(sp)
    80000738:	7ca2                	ld	s9,40(sp)
    8000073a:	7d02                	ld	s10,32(sp)
    8000073c:	6de2                	ld	s11,24(sp)
    8000073e:	6129                	addi	sp,sp,192
    80000740:	8082                	ret
    release(&pr.lock);
    80000742:	00012517          	auipc	a0,0x12
    80000746:	ae650513          	addi	a0,a0,-1306 # 80012228 <pr>
    8000074a:	00000097          	auipc	ra,0x0
    8000074e:	52c080e7          	jalr	1324(ra) # 80000c76 <release>
}
    80000752:	bfc9                	j	80000724 <printf+0x1b0>

0000000080000754 <printfinit>:
    ;
}

void
printfinit(void)
{
    80000754:	1101                	addi	sp,sp,-32
    80000756:	ec06                	sd	ra,24(sp)
    80000758:	e822                	sd	s0,16(sp)
    8000075a:	e426                	sd	s1,8(sp)
    8000075c:	1000                	addi	s0,sp,32
  initlock(&pr.lock, "pr");
    8000075e:	00012497          	auipc	s1,0x12
    80000762:	aca48493          	addi	s1,s1,-1334 # 80012228 <pr>
    80000766:	00009597          	auipc	a1,0x9
    8000076a:	8d258593          	addi	a1,a1,-1838 # 80009038 <etext+0x38>
    8000076e:	8526                	mv	a0,s1
    80000770:	00000097          	auipc	ra,0x0
    80000774:	3c2080e7          	jalr	962(ra) # 80000b32 <initlock>
  pr.locking = 1;
    80000778:	4785                	li	a5,1
    8000077a:	cc9c                	sw	a5,24(s1)
}
    8000077c:	60e2                	ld	ra,24(sp)
    8000077e:	6442                	ld	s0,16(sp)
    80000780:	64a2                	ld	s1,8(sp)
    80000782:	6105                	addi	sp,sp,32
    80000784:	8082                	ret

0000000080000786 <uartinit>:

void uartstart();

void
uartinit(void)
{
    80000786:	1141                	addi	sp,sp,-16
    80000788:	e406                	sd	ra,8(sp)
    8000078a:	e022                	sd	s0,0(sp)
    8000078c:	0800                	addi	s0,sp,16
  // disable interrupts.
  WriteReg(IER, 0x00);
    8000078e:	100007b7          	lui	a5,0x10000
    80000792:	000780a3          	sb	zero,1(a5) # 10000001 <_entry-0x6fffffff>

  // special mode to set baud rate.
  WriteReg(LCR, LCR_BAUD_LATCH);
    80000796:	f8000713          	li	a4,-128
    8000079a:	00e781a3          	sb	a4,3(a5)

  // LSB for baud rate of 38.4K.
  WriteReg(0, 0x03);
    8000079e:	470d                	li	a4,3
    800007a0:	00e78023          	sb	a4,0(a5)

  // MSB for baud rate of 38.4K.
  WriteReg(1, 0x00);
    800007a4:	000780a3          	sb	zero,1(a5)

  // leave set-baud mode,
  // and set word length to 8 bits, no parity.
  WriteReg(LCR, LCR_EIGHT_BITS);
    800007a8:	00e781a3          	sb	a4,3(a5)

  // reset and enable FIFOs.
  WriteReg(FCR, FCR_FIFO_ENABLE | FCR_FIFO_CLEAR);
    800007ac:	469d                	li	a3,7
    800007ae:	00d78123          	sb	a3,2(a5)

  // enable transmit and receive interrupts.
  WriteReg(IER, IER_TX_ENABLE | IER_RX_ENABLE);
    800007b2:	00e780a3          	sb	a4,1(a5)

  initlock(&uart_tx_lock, "uart");
    800007b6:	00009597          	auipc	a1,0x9
    800007ba:	8a258593          	addi	a1,a1,-1886 # 80009058 <digits+0x18>
    800007be:	00012517          	auipc	a0,0x12
    800007c2:	a8a50513          	addi	a0,a0,-1398 # 80012248 <uart_tx_lock>
    800007c6:	00000097          	auipc	ra,0x0
    800007ca:	36c080e7          	jalr	876(ra) # 80000b32 <initlock>
}
    800007ce:	60a2                	ld	ra,8(sp)
    800007d0:	6402                	ld	s0,0(sp)
    800007d2:	0141                	addi	sp,sp,16
    800007d4:	8082                	ret

00000000800007d6 <uartputc_sync>:
// use interrupts, for use by kernel printf() and
// to echo characters. it spins waiting for the uart's
// output register to be empty.
void
uartputc_sync(int c)
{
    800007d6:	1101                	addi	sp,sp,-32
    800007d8:	ec06                	sd	ra,24(sp)
    800007da:	e822                	sd	s0,16(sp)
    800007dc:	e426                	sd	s1,8(sp)
    800007de:	1000                	addi	s0,sp,32
    800007e0:	84aa                	mv	s1,a0
  push_off();
    800007e2:	00000097          	auipc	ra,0x0
    800007e6:	394080e7          	jalr	916(ra) # 80000b76 <push_off>

  if(panicked){
    800007ea:	0000a797          	auipc	a5,0xa
    800007ee:	8167a783          	lw	a5,-2026(a5) # 8000a000 <panicked>
    for(;;)
      ;
  }

  // wait for Transmit Holding Empty to be set in LSR.
  while((ReadReg(LSR) & LSR_TX_IDLE) == 0)
    800007f2:	10000737          	lui	a4,0x10000
  if(panicked){
    800007f6:	c391                	beqz	a5,800007fa <uartputc_sync+0x24>
    for(;;)
    800007f8:	a001                	j	800007f8 <uartputc_sync+0x22>
  while((ReadReg(LSR) & LSR_TX_IDLE) == 0)
    800007fa:	00574783          	lbu	a5,5(a4) # 10000005 <_entry-0x6ffffffb>
    800007fe:	0207f793          	andi	a5,a5,32
    80000802:	dfe5                	beqz	a5,800007fa <uartputc_sync+0x24>
    ;
  WriteReg(THR, c);
    80000804:	0ff4f513          	andi	a0,s1,255
    80000808:	100007b7          	lui	a5,0x10000
    8000080c:	00a78023          	sb	a0,0(a5) # 10000000 <_entry-0x70000000>

  pop_off();
    80000810:	00000097          	auipc	ra,0x0
    80000814:	406080e7          	jalr	1030(ra) # 80000c16 <pop_off>
}
    80000818:	60e2                	ld	ra,24(sp)
    8000081a:	6442                	ld	s0,16(sp)
    8000081c:	64a2                	ld	s1,8(sp)
    8000081e:	6105                	addi	sp,sp,32
    80000820:	8082                	ret

0000000080000822 <uartstart>:
// called from both the top- and bottom-half.
void
uartstart()
{
  while(1){
    if(uart_tx_w == uart_tx_r){
    80000822:	00009797          	auipc	a5,0x9
    80000826:	7e67b783          	ld	a5,2022(a5) # 8000a008 <uart_tx_r>
    8000082a:	00009717          	auipc	a4,0x9
    8000082e:	7e673703          	ld	a4,2022(a4) # 8000a010 <uart_tx_w>
    80000832:	06f70a63          	beq	a4,a5,800008a6 <uartstart+0x84>
{
    80000836:	7139                	addi	sp,sp,-64
    80000838:	fc06                	sd	ra,56(sp)
    8000083a:	f822                	sd	s0,48(sp)
    8000083c:	f426                	sd	s1,40(sp)
    8000083e:	f04a                	sd	s2,32(sp)
    80000840:	ec4e                	sd	s3,24(sp)
    80000842:	e852                	sd	s4,16(sp)
    80000844:	e456                	sd	s5,8(sp)
    80000846:	0080                	addi	s0,sp,64
      // transmit buffer is empty.
      return;
    }
    
    if((ReadReg(LSR) & LSR_TX_IDLE) == 0){
    80000848:	10000937          	lui	s2,0x10000
      // so we cannot give it another byte.
      // it will interrupt when it's ready for a new byte.
      return;
    }
    
    int c = uart_tx_buf[uart_tx_r % UART_TX_BUF_SIZE];
    8000084c:	00012a17          	auipc	s4,0x12
    80000850:	9fca0a13          	addi	s4,s4,-1540 # 80012248 <uart_tx_lock>
    uart_tx_r += 1;
    80000854:	00009497          	auipc	s1,0x9
    80000858:	7b448493          	addi	s1,s1,1972 # 8000a008 <uart_tx_r>
    if(uart_tx_w == uart_tx_r){
    8000085c:	00009997          	auipc	s3,0x9
    80000860:	7b498993          	addi	s3,s3,1972 # 8000a010 <uart_tx_w>
    if((ReadReg(LSR) & LSR_TX_IDLE) == 0){
    80000864:	00594703          	lbu	a4,5(s2) # 10000005 <_entry-0x6ffffffb>
    80000868:	02077713          	andi	a4,a4,32
    8000086c:	c705                	beqz	a4,80000894 <uartstart+0x72>
    int c = uart_tx_buf[uart_tx_r % UART_TX_BUF_SIZE];
    8000086e:	01f7f713          	andi	a4,a5,31
    80000872:	9752                	add	a4,a4,s4
    80000874:	01874a83          	lbu	s5,24(a4)
    uart_tx_r += 1;
    80000878:	0785                	addi	a5,a5,1
    8000087a:	e09c                	sd	a5,0(s1)
    
    // maybe uartputc() is waiting for space in the buffer.
    wakeup(&uart_tx_r);
    8000087c:	8526                	mv	a0,s1
    8000087e:	00002097          	auipc	ra,0x2
    80000882:	30e080e7          	jalr	782(ra) # 80002b8c <wakeup>
    
    WriteReg(THR, c);
    80000886:	01590023          	sb	s5,0(s2)
    if(uart_tx_w == uart_tx_r){
    8000088a:	609c                	ld	a5,0(s1)
    8000088c:	0009b703          	ld	a4,0(s3)
    80000890:	fcf71ae3          	bne	a4,a5,80000864 <uartstart+0x42>
  }
}
    80000894:	70e2                	ld	ra,56(sp)
    80000896:	7442                	ld	s0,48(sp)
    80000898:	74a2                	ld	s1,40(sp)
    8000089a:	7902                	ld	s2,32(sp)
    8000089c:	69e2                	ld	s3,24(sp)
    8000089e:	6a42                	ld	s4,16(sp)
    800008a0:	6aa2                	ld	s5,8(sp)
    800008a2:	6121                	addi	sp,sp,64
    800008a4:	8082                	ret
    800008a6:	8082                	ret

00000000800008a8 <uartputc>:
{
    800008a8:	7179                	addi	sp,sp,-48
    800008aa:	f406                	sd	ra,40(sp)
    800008ac:	f022                	sd	s0,32(sp)
    800008ae:	ec26                	sd	s1,24(sp)
    800008b0:	e84a                	sd	s2,16(sp)
    800008b2:	e44e                	sd	s3,8(sp)
    800008b4:	e052                	sd	s4,0(sp)
    800008b6:	1800                	addi	s0,sp,48
    800008b8:	8a2a                	mv	s4,a0
  acquire(&uart_tx_lock);
    800008ba:	00012517          	auipc	a0,0x12
    800008be:	98e50513          	addi	a0,a0,-1650 # 80012248 <uart_tx_lock>
    800008c2:	00000097          	auipc	ra,0x0
    800008c6:	300080e7          	jalr	768(ra) # 80000bc2 <acquire>
  if(panicked){
    800008ca:	00009797          	auipc	a5,0x9
    800008ce:	7367a783          	lw	a5,1846(a5) # 8000a000 <panicked>
    800008d2:	c391                	beqz	a5,800008d6 <uartputc+0x2e>
    for(;;)
    800008d4:	a001                	j	800008d4 <uartputc+0x2c>
    if(uart_tx_w == uart_tx_r + UART_TX_BUF_SIZE){
    800008d6:	00009717          	auipc	a4,0x9
    800008da:	73a73703          	ld	a4,1850(a4) # 8000a010 <uart_tx_w>
    800008de:	00009797          	auipc	a5,0x9
    800008e2:	72a7b783          	ld	a5,1834(a5) # 8000a008 <uart_tx_r>
    800008e6:	02078793          	addi	a5,a5,32
    800008ea:	02e79b63          	bne	a5,a4,80000920 <uartputc+0x78>
      sleep(&uart_tx_r, &uart_tx_lock);
    800008ee:	00012997          	auipc	s3,0x12
    800008f2:	95a98993          	addi	s3,s3,-1702 # 80012248 <uart_tx_lock>
    800008f6:	00009497          	auipc	s1,0x9
    800008fa:	71248493          	addi	s1,s1,1810 # 8000a008 <uart_tx_r>
    if(uart_tx_w == uart_tx_r + UART_TX_BUF_SIZE){
    800008fe:	00009917          	auipc	s2,0x9
    80000902:	71290913          	addi	s2,s2,1810 # 8000a010 <uart_tx_w>
      sleep(&uart_tx_r, &uart_tx_lock);
    80000906:	85ce                	mv	a1,s3
    80000908:	8526                	mv	a0,s1
    8000090a:	00002097          	auipc	ra,0x2
    8000090e:	0f6080e7          	jalr	246(ra) # 80002a00 <sleep>
    if(uart_tx_w == uart_tx_r + UART_TX_BUF_SIZE){
    80000912:	00093703          	ld	a4,0(s2)
    80000916:	609c                	ld	a5,0(s1)
    80000918:	02078793          	addi	a5,a5,32
    8000091c:	fee785e3          	beq	a5,a4,80000906 <uartputc+0x5e>
      uart_tx_buf[uart_tx_w % UART_TX_BUF_SIZE] = c;
    80000920:	00012497          	auipc	s1,0x12
    80000924:	92848493          	addi	s1,s1,-1752 # 80012248 <uart_tx_lock>
    80000928:	01f77793          	andi	a5,a4,31
    8000092c:	97a6                	add	a5,a5,s1
    8000092e:	01478c23          	sb	s4,24(a5)
      uart_tx_w += 1;
    80000932:	0705                	addi	a4,a4,1
    80000934:	00009797          	auipc	a5,0x9
    80000938:	6ce7be23          	sd	a4,1756(a5) # 8000a010 <uart_tx_w>
      uartstart();
    8000093c:	00000097          	auipc	ra,0x0
    80000940:	ee6080e7          	jalr	-282(ra) # 80000822 <uartstart>
      release(&uart_tx_lock);
    80000944:	8526                	mv	a0,s1
    80000946:	00000097          	auipc	ra,0x0
    8000094a:	330080e7          	jalr	816(ra) # 80000c76 <release>
}
    8000094e:	70a2                	ld	ra,40(sp)
    80000950:	7402                	ld	s0,32(sp)
    80000952:	64e2                	ld	s1,24(sp)
    80000954:	6942                	ld	s2,16(sp)
    80000956:	69a2                	ld	s3,8(sp)
    80000958:	6a02                	ld	s4,0(sp)
    8000095a:	6145                	addi	sp,sp,48
    8000095c:	8082                	ret

000000008000095e <uartgetc>:

// read one input character from the UART.
// return -1 if none is waiting.
int
uartgetc(void)
{
    8000095e:	1141                	addi	sp,sp,-16
    80000960:	e422                	sd	s0,8(sp)
    80000962:	0800                	addi	s0,sp,16
  if(ReadReg(LSR) & 0x01){
    80000964:	100007b7          	lui	a5,0x10000
    80000968:	0057c783          	lbu	a5,5(a5) # 10000005 <_entry-0x6ffffffb>
    8000096c:	8b85                	andi	a5,a5,1
    8000096e:	cb91                	beqz	a5,80000982 <uartgetc+0x24>
    // input data is ready.
    return ReadReg(RHR);
    80000970:	100007b7          	lui	a5,0x10000
    80000974:	0007c503          	lbu	a0,0(a5) # 10000000 <_entry-0x70000000>
    80000978:	0ff57513          	andi	a0,a0,255
  } else {
    return -1;
  }
}
    8000097c:	6422                	ld	s0,8(sp)
    8000097e:	0141                	addi	sp,sp,16
    80000980:	8082                	ret
    return -1;
    80000982:	557d                	li	a0,-1
    80000984:	bfe5                	j	8000097c <uartgetc+0x1e>

0000000080000986 <uartintr>:
// handle a uart interrupt, raised because input has
// arrived, or the uart is ready for more output, or
// both. called from trap.c.
void
uartintr(void)
{
    80000986:	1101                	addi	sp,sp,-32
    80000988:	ec06                	sd	ra,24(sp)
    8000098a:	e822                	sd	s0,16(sp)
    8000098c:	e426                	sd	s1,8(sp)
    8000098e:	1000                	addi	s0,sp,32
  // read and process incoming characters.
  while(1){
    int c = uartgetc();
    if(c == -1)
    80000990:	54fd                	li	s1,-1
    80000992:	a029                	j	8000099c <uartintr+0x16>
      break;
    consoleintr(c);
    80000994:	00000097          	auipc	ra,0x0
    80000998:	916080e7          	jalr	-1770(ra) # 800002aa <consoleintr>
    int c = uartgetc();
    8000099c:	00000097          	auipc	ra,0x0
    800009a0:	fc2080e7          	jalr	-62(ra) # 8000095e <uartgetc>
    if(c == -1)
    800009a4:	fe9518e3          	bne	a0,s1,80000994 <uartintr+0xe>
  }

  // send buffered characters.
  acquire(&uart_tx_lock);
    800009a8:	00012497          	auipc	s1,0x12
    800009ac:	8a048493          	addi	s1,s1,-1888 # 80012248 <uart_tx_lock>
    800009b0:	8526                	mv	a0,s1
    800009b2:	00000097          	auipc	ra,0x0
    800009b6:	210080e7          	jalr	528(ra) # 80000bc2 <acquire>
  uartstart();
    800009ba:	00000097          	auipc	ra,0x0
    800009be:	e68080e7          	jalr	-408(ra) # 80000822 <uartstart>
  release(&uart_tx_lock);
    800009c2:	8526                	mv	a0,s1
    800009c4:	00000097          	auipc	ra,0x0
    800009c8:	2b2080e7          	jalr	690(ra) # 80000c76 <release>
}
    800009cc:	60e2                	ld	ra,24(sp)
    800009ce:	6442                	ld	s0,16(sp)
    800009d0:	64a2                	ld	s1,8(sp)
    800009d2:	6105                	addi	sp,sp,32
    800009d4:	8082                	ret

00000000800009d6 <kfree>:
// which normally should have been returned by a
// call to kalloc().  (The exception is when
// initializing the allocator; see kinit above.)
void
kfree(void *pa)
{
    800009d6:	1101                	addi	sp,sp,-32
    800009d8:	ec06                	sd	ra,24(sp)
    800009da:	e822                	sd	s0,16(sp)
    800009dc:	e426                	sd	s1,8(sp)
    800009de:	e04a                	sd	s2,0(sp)
    800009e0:	1000                	addi	s0,sp,32
  struct run *r;

  if(((uint64)pa % PGSIZE) != 0 || (char*)pa < end || (uint64)pa >= PHYSTOP)
    800009e2:	03451793          	slli	a5,a0,0x34
    800009e6:	ebb9                	bnez	a5,80000a3c <kfree+0x66>
    800009e8:	84aa                	mv	s1,a0
    800009ea:	0002d797          	auipc	a5,0x2d
    800009ee:	61678793          	addi	a5,a5,1558 # 8002e000 <end>
    800009f2:	04f56563          	bltu	a0,a5,80000a3c <kfree+0x66>
    800009f6:	47c5                	li	a5,17
    800009f8:	07ee                	slli	a5,a5,0x1b
    800009fa:	04f57163          	bgeu	a0,a5,80000a3c <kfree+0x66>
    panic("kfree");

  // Fill with junk to catch dangling refs.
  memset(pa, 1, PGSIZE);
    800009fe:	6605                	lui	a2,0x1
    80000a00:	4585                	li	a1,1
    80000a02:	00000097          	auipc	ra,0x0
    80000a06:	2bc080e7          	jalr	700(ra) # 80000cbe <memset>

  r = (struct run*)pa;

  acquire(&kmem.lock);
    80000a0a:	00012917          	auipc	s2,0x12
    80000a0e:	87690913          	addi	s2,s2,-1930 # 80012280 <kmem>
    80000a12:	854a                	mv	a0,s2
    80000a14:	00000097          	auipc	ra,0x0
    80000a18:	1ae080e7          	jalr	430(ra) # 80000bc2 <acquire>
  r->next = kmem.freelist;
    80000a1c:	01893783          	ld	a5,24(s2)
    80000a20:	e09c                	sd	a5,0(s1)
  kmem.freelist = r;
    80000a22:	00993c23          	sd	s1,24(s2)
  release(&kmem.lock);
    80000a26:	854a                	mv	a0,s2
    80000a28:	00000097          	auipc	ra,0x0
    80000a2c:	24e080e7          	jalr	590(ra) # 80000c76 <release>
}
    80000a30:	60e2                	ld	ra,24(sp)
    80000a32:	6442                	ld	s0,16(sp)
    80000a34:	64a2                	ld	s1,8(sp)
    80000a36:	6902                	ld	s2,0(sp)
    80000a38:	6105                	addi	sp,sp,32
    80000a3a:	8082                	ret
    panic("kfree");
    80000a3c:	00008517          	auipc	a0,0x8
    80000a40:	62450513          	addi	a0,a0,1572 # 80009060 <digits+0x20>
    80000a44:	00000097          	auipc	ra,0x0
    80000a48:	ae6080e7          	jalr	-1306(ra) # 8000052a <panic>

0000000080000a4c <freerange>:
{
    80000a4c:	7179                	addi	sp,sp,-48
    80000a4e:	f406                	sd	ra,40(sp)
    80000a50:	f022                	sd	s0,32(sp)
    80000a52:	ec26                	sd	s1,24(sp)
    80000a54:	e84a                	sd	s2,16(sp)
    80000a56:	e44e                	sd	s3,8(sp)
    80000a58:	e052                	sd	s4,0(sp)
    80000a5a:	1800                	addi	s0,sp,48
  p = (char*)PGROUNDUP((uint64)pa_start);
    80000a5c:	6785                	lui	a5,0x1
    80000a5e:	fff78493          	addi	s1,a5,-1 # fff <_entry-0x7ffff001>
    80000a62:	94aa                	add	s1,s1,a0
    80000a64:	757d                	lui	a0,0xfffff
    80000a66:	8ce9                	and	s1,s1,a0
  for(; p + PGSIZE <= (char*)pa_end; p += PGSIZE)
    80000a68:	94be                	add	s1,s1,a5
    80000a6a:	0095ee63          	bltu	a1,s1,80000a86 <freerange+0x3a>
    80000a6e:	892e                	mv	s2,a1
    kfree(p);
    80000a70:	7a7d                	lui	s4,0xfffff
  for(; p + PGSIZE <= (char*)pa_end; p += PGSIZE)
    80000a72:	6985                	lui	s3,0x1
    kfree(p);
    80000a74:	01448533          	add	a0,s1,s4
    80000a78:	00000097          	auipc	ra,0x0
    80000a7c:	f5e080e7          	jalr	-162(ra) # 800009d6 <kfree>
  for(; p + PGSIZE <= (char*)pa_end; p += PGSIZE)
    80000a80:	94ce                	add	s1,s1,s3
    80000a82:	fe9979e3          	bgeu	s2,s1,80000a74 <freerange+0x28>
}
    80000a86:	70a2                	ld	ra,40(sp)
    80000a88:	7402                	ld	s0,32(sp)
    80000a8a:	64e2                	ld	s1,24(sp)
    80000a8c:	6942                	ld	s2,16(sp)
    80000a8e:	69a2                	ld	s3,8(sp)
    80000a90:	6a02                	ld	s4,0(sp)
    80000a92:	6145                	addi	sp,sp,48
    80000a94:	8082                	ret

0000000080000a96 <kinit>:
{
    80000a96:	1141                	addi	sp,sp,-16
    80000a98:	e406                	sd	ra,8(sp)
    80000a9a:	e022                	sd	s0,0(sp)
    80000a9c:	0800                	addi	s0,sp,16
  initlock(&kmem.lock, "kmem");
    80000a9e:	00008597          	auipc	a1,0x8
    80000aa2:	5ca58593          	addi	a1,a1,1482 # 80009068 <digits+0x28>
    80000aa6:	00011517          	auipc	a0,0x11
    80000aaa:	7da50513          	addi	a0,a0,2010 # 80012280 <kmem>
    80000aae:	00000097          	auipc	ra,0x0
    80000ab2:	084080e7          	jalr	132(ra) # 80000b32 <initlock>
  freerange(end, (void*)PHYSTOP);
    80000ab6:	45c5                	li	a1,17
    80000ab8:	05ee                	slli	a1,a1,0x1b
    80000aba:	0002d517          	auipc	a0,0x2d
    80000abe:	54650513          	addi	a0,a0,1350 # 8002e000 <end>
    80000ac2:	00000097          	auipc	ra,0x0
    80000ac6:	f8a080e7          	jalr	-118(ra) # 80000a4c <freerange>
}
    80000aca:	60a2                	ld	ra,8(sp)
    80000acc:	6402                	ld	s0,0(sp)
    80000ace:	0141                	addi	sp,sp,16
    80000ad0:	8082                	ret

0000000080000ad2 <kalloc>:
// Allocate one 4096-byte page of physical memory.
// Returns a pointer that the kernel can use.
// Returns 0 if the memory cannot be allocated.
void *
kalloc(void)
{
    80000ad2:	1101                	addi	sp,sp,-32
    80000ad4:	ec06                	sd	ra,24(sp)
    80000ad6:	e822                	sd	s0,16(sp)
    80000ad8:	e426                	sd	s1,8(sp)
    80000ada:	1000                	addi	s0,sp,32
  struct run *r;

  acquire(&kmem.lock);
    80000adc:	00011497          	auipc	s1,0x11
    80000ae0:	7a448493          	addi	s1,s1,1956 # 80012280 <kmem>
    80000ae4:	8526                	mv	a0,s1
    80000ae6:	00000097          	auipc	ra,0x0
    80000aea:	0dc080e7          	jalr	220(ra) # 80000bc2 <acquire>
  r = kmem.freelist;
    80000aee:	6c84                	ld	s1,24(s1)
  if(r)
    80000af0:	c885                	beqz	s1,80000b20 <kalloc+0x4e>
    kmem.freelist = r->next;
    80000af2:	609c                	ld	a5,0(s1)
    80000af4:	00011517          	auipc	a0,0x11
    80000af8:	78c50513          	addi	a0,a0,1932 # 80012280 <kmem>
    80000afc:	ed1c                	sd	a5,24(a0)
  release(&kmem.lock);
    80000afe:	00000097          	auipc	ra,0x0
    80000b02:	178080e7          	jalr	376(ra) # 80000c76 <release>

  if(r)
    memset((char*)r, 5, PGSIZE); // fill with junk
    80000b06:	6605                	lui	a2,0x1
    80000b08:	4595                	li	a1,5
    80000b0a:	8526                	mv	a0,s1
    80000b0c:	00000097          	auipc	ra,0x0
    80000b10:	1b2080e7          	jalr	434(ra) # 80000cbe <memset>
  return (void*)r;
}
    80000b14:	8526                	mv	a0,s1
    80000b16:	60e2                	ld	ra,24(sp)
    80000b18:	6442                	ld	s0,16(sp)
    80000b1a:	64a2                	ld	s1,8(sp)
    80000b1c:	6105                	addi	sp,sp,32
    80000b1e:	8082                	ret
  release(&kmem.lock);
    80000b20:	00011517          	auipc	a0,0x11
    80000b24:	76050513          	addi	a0,a0,1888 # 80012280 <kmem>
    80000b28:	00000097          	auipc	ra,0x0
    80000b2c:	14e080e7          	jalr	334(ra) # 80000c76 <release>
  if(r)
    80000b30:	b7d5                	j	80000b14 <kalloc+0x42>

0000000080000b32 <initlock>:
#include "proc.h"
#include "defs.h"

void
initlock(struct spinlock *lk, char *name)
{
    80000b32:	1141                	addi	sp,sp,-16
    80000b34:	e422                	sd	s0,8(sp)
    80000b36:	0800                	addi	s0,sp,16
  lk->name = name;
    80000b38:	e50c                	sd	a1,8(a0)
  lk->locked = 0;
    80000b3a:	00052023          	sw	zero,0(a0)
  lk->cpu = 0;
    80000b3e:	00053823          	sd	zero,16(a0)
}
    80000b42:	6422                	ld	s0,8(sp)
    80000b44:	0141                	addi	sp,sp,16
    80000b46:	8082                	ret

0000000080000b48 <holding>:
// Interrupts must be off.
int
holding(struct spinlock *lk)
{
  int r;
  r = (lk->locked && lk->cpu == mycpu());
    80000b48:	411c                	lw	a5,0(a0)
    80000b4a:	e399                	bnez	a5,80000b50 <holding+0x8>
    80000b4c:	4501                	li	a0,0
  return r;
}
    80000b4e:	8082                	ret
{
    80000b50:	1101                	addi	sp,sp,-32
    80000b52:	ec06                	sd	ra,24(sp)
    80000b54:	e822                	sd	s0,16(sp)
    80000b56:	e426                	sd	s1,8(sp)
    80000b58:	1000                	addi	s0,sp,32
  r = (lk->locked && lk->cpu == mycpu());
    80000b5a:	6904                	ld	s1,16(a0)
    80000b5c:	00001097          	auipc	ra,0x1
    80000b60:	68c080e7          	jalr	1676(ra) # 800021e8 <mycpu>
    80000b64:	40a48533          	sub	a0,s1,a0
    80000b68:	00153513          	seqz	a0,a0
}
    80000b6c:	60e2                	ld	ra,24(sp)
    80000b6e:	6442                	ld	s0,16(sp)
    80000b70:	64a2                	ld	s1,8(sp)
    80000b72:	6105                	addi	sp,sp,32
    80000b74:	8082                	ret

0000000080000b76 <push_off>:
// it takes two pop_off()s to undo two push_off()s.  Also, if interrupts
// are initially off, then push_off, pop_off leaves them off.

void
push_off(void)
{
    80000b76:	1101                	addi	sp,sp,-32
    80000b78:	ec06                	sd	ra,24(sp)
    80000b7a:	e822                	sd	s0,16(sp)
    80000b7c:	e426                	sd	s1,8(sp)
    80000b7e:	1000                	addi	s0,sp,32
  asm volatile("csrr %0, sstatus" : "=r" (x) );
    80000b80:	100024f3          	csrr	s1,sstatus
    80000b84:	100027f3          	csrr	a5,sstatus
  w_sstatus(r_sstatus() & ~SSTATUS_SIE);
    80000b88:	9bf5                	andi	a5,a5,-3
  asm volatile("csrw sstatus, %0" : : "r" (x));
    80000b8a:	10079073          	csrw	sstatus,a5
  int old = intr_get();

  intr_off();
  if(mycpu()->noff == 0)
    80000b8e:	00001097          	auipc	ra,0x1
    80000b92:	65a080e7          	jalr	1626(ra) # 800021e8 <mycpu>
    80000b96:	5d3c                	lw	a5,120(a0)
    80000b98:	cf89                	beqz	a5,80000bb2 <push_off+0x3c>
    mycpu()->intena = old;
  mycpu()->noff += 1;
    80000b9a:	00001097          	auipc	ra,0x1
    80000b9e:	64e080e7          	jalr	1614(ra) # 800021e8 <mycpu>
    80000ba2:	5d3c                	lw	a5,120(a0)
    80000ba4:	2785                	addiw	a5,a5,1
    80000ba6:	dd3c                	sw	a5,120(a0)
}
    80000ba8:	60e2                	ld	ra,24(sp)
    80000baa:	6442                	ld	s0,16(sp)
    80000bac:	64a2                	ld	s1,8(sp)
    80000bae:	6105                	addi	sp,sp,32
    80000bb0:	8082                	ret
    mycpu()->intena = old;
    80000bb2:	00001097          	auipc	ra,0x1
    80000bb6:	636080e7          	jalr	1590(ra) # 800021e8 <mycpu>
  return (x & SSTATUS_SIE) != 0;
    80000bba:	8085                	srli	s1,s1,0x1
    80000bbc:	8885                	andi	s1,s1,1
    80000bbe:	dd64                	sw	s1,124(a0)
    80000bc0:	bfe9                	j	80000b9a <push_off+0x24>

0000000080000bc2 <acquire>:
{
    80000bc2:	1101                	addi	sp,sp,-32
    80000bc4:	ec06                	sd	ra,24(sp)
    80000bc6:	e822                	sd	s0,16(sp)
    80000bc8:	e426                	sd	s1,8(sp)
    80000bca:	1000                	addi	s0,sp,32
    80000bcc:	84aa                	mv	s1,a0
  push_off(); // disable interrupts to avoid deadlock.
    80000bce:	00000097          	auipc	ra,0x0
    80000bd2:	fa8080e7          	jalr	-88(ra) # 80000b76 <push_off>
  if(holding(lk))
    80000bd6:	8526                	mv	a0,s1
    80000bd8:	00000097          	auipc	ra,0x0
    80000bdc:	f70080e7          	jalr	-144(ra) # 80000b48 <holding>
  while(__sync_lock_test_and_set(&lk->locked, 1) != 0)
    80000be0:	4705                	li	a4,1
  if(holding(lk))
    80000be2:	e115                	bnez	a0,80000c06 <acquire+0x44>
  while(__sync_lock_test_and_set(&lk->locked, 1) != 0)
    80000be4:	87ba                	mv	a5,a4
    80000be6:	0cf4a7af          	amoswap.w.aq	a5,a5,(s1)
    80000bea:	2781                	sext.w	a5,a5
    80000bec:	ffe5                	bnez	a5,80000be4 <acquire+0x22>
  __sync_synchronize();
    80000bee:	0ff0000f          	fence
  lk->cpu = mycpu();
    80000bf2:	00001097          	auipc	ra,0x1
    80000bf6:	5f6080e7          	jalr	1526(ra) # 800021e8 <mycpu>
    80000bfa:	e888                	sd	a0,16(s1)
}
    80000bfc:	60e2                	ld	ra,24(sp)
    80000bfe:	6442                	ld	s0,16(sp)
    80000c00:	64a2                	ld	s1,8(sp)
    80000c02:	6105                	addi	sp,sp,32
    80000c04:	8082                	ret
    panic("acquire");
    80000c06:	00008517          	auipc	a0,0x8
    80000c0a:	46a50513          	addi	a0,a0,1130 # 80009070 <digits+0x30>
    80000c0e:	00000097          	auipc	ra,0x0
    80000c12:	91c080e7          	jalr	-1764(ra) # 8000052a <panic>

0000000080000c16 <pop_off>:

void
pop_off(void)
{
    80000c16:	1141                	addi	sp,sp,-16
    80000c18:	e406                	sd	ra,8(sp)
    80000c1a:	e022                	sd	s0,0(sp)
    80000c1c:	0800                	addi	s0,sp,16
  struct cpu *c = mycpu();
    80000c1e:	00001097          	auipc	ra,0x1
    80000c22:	5ca080e7          	jalr	1482(ra) # 800021e8 <mycpu>
  asm volatile("csrr %0, sstatus" : "=r" (x) );
    80000c26:	100027f3          	csrr	a5,sstatus
  return (x & SSTATUS_SIE) != 0;
    80000c2a:	8b89                	andi	a5,a5,2
  if(intr_get())
    80000c2c:	e78d                	bnez	a5,80000c56 <pop_off+0x40>
    panic("pop_off - interruptible");
  if(c->noff < 1)
    80000c2e:	5d3c                	lw	a5,120(a0)
    80000c30:	02f05b63          	blez	a5,80000c66 <pop_off+0x50>
    panic("pop_off");
  c->noff -= 1;
    80000c34:	37fd                	addiw	a5,a5,-1
    80000c36:	0007871b          	sext.w	a4,a5
    80000c3a:	dd3c                	sw	a5,120(a0)
  if(c->noff == 0 && c->intena)
    80000c3c:	eb09                	bnez	a4,80000c4e <pop_off+0x38>
    80000c3e:	5d7c                	lw	a5,124(a0)
    80000c40:	c799                	beqz	a5,80000c4e <pop_off+0x38>
  asm volatile("csrr %0, sstatus" : "=r" (x) );
    80000c42:	100027f3          	csrr	a5,sstatus
  w_sstatus(r_sstatus() | SSTATUS_SIE);
    80000c46:	0027e793          	ori	a5,a5,2
  asm volatile("csrw sstatus, %0" : : "r" (x));
    80000c4a:	10079073          	csrw	sstatus,a5
    intr_on();
}
    80000c4e:	60a2                	ld	ra,8(sp)
    80000c50:	6402                	ld	s0,0(sp)
    80000c52:	0141                	addi	sp,sp,16
    80000c54:	8082                	ret
    panic("pop_off - interruptible");
    80000c56:	00008517          	auipc	a0,0x8
    80000c5a:	42250513          	addi	a0,a0,1058 # 80009078 <digits+0x38>
    80000c5e:	00000097          	auipc	ra,0x0
    80000c62:	8cc080e7          	jalr	-1844(ra) # 8000052a <panic>
    panic("pop_off");
    80000c66:	00008517          	auipc	a0,0x8
    80000c6a:	42a50513          	addi	a0,a0,1066 # 80009090 <digits+0x50>
    80000c6e:	00000097          	auipc	ra,0x0
    80000c72:	8bc080e7          	jalr	-1860(ra) # 8000052a <panic>

0000000080000c76 <release>:
{
    80000c76:	1101                	addi	sp,sp,-32
    80000c78:	ec06                	sd	ra,24(sp)
    80000c7a:	e822                	sd	s0,16(sp)
    80000c7c:	e426                	sd	s1,8(sp)
    80000c7e:	1000                	addi	s0,sp,32
    80000c80:	84aa                	mv	s1,a0
  if(!holding(lk))
    80000c82:	00000097          	auipc	ra,0x0
    80000c86:	ec6080e7          	jalr	-314(ra) # 80000b48 <holding>
    80000c8a:	c115                	beqz	a0,80000cae <release+0x38>
  lk->cpu = 0;
    80000c8c:	0004b823          	sd	zero,16(s1)
  __sync_synchronize();
    80000c90:	0ff0000f          	fence
  __sync_lock_release(&lk->locked);
    80000c94:	0f50000f          	fence	iorw,ow
    80000c98:	0804a02f          	amoswap.w	zero,zero,(s1)
  pop_off();
    80000c9c:	00000097          	auipc	ra,0x0
    80000ca0:	f7a080e7          	jalr	-134(ra) # 80000c16 <pop_off>
}
    80000ca4:	60e2                	ld	ra,24(sp)
    80000ca6:	6442                	ld	s0,16(sp)
    80000ca8:	64a2                	ld	s1,8(sp)
    80000caa:	6105                	addi	sp,sp,32
    80000cac:	8082                	ret
    panic("release");
    80000cae:	00008517          	auipc	a0,0x8
    80000cb2:	3ea50513          	addi	a0,a0,1002 # 80009098 <digits+0x58>
    80000cb6:	00000097          	auipc	ra,0x0
    80000cba:	874080e7          	jalr	-1932(ra) # 8000052a <panic>

0000000080000cbe <memset>:
#include "types.h"

void*
memset(void *dst, int c, uint n)
{
    80000cbe:	1141                	addi	sp,sp,-16
    80000cc0:	e422                	sd	s0,8(sp)
    80000cc2:	0800                	addi	s0,sp,16
  char *cdst = (char *) dst;
  int i;
  for(i = 0; i < n; i++){
    80000cc4:	ca19                	beqz	a2,80000cda <memset+0x1c>
    80000cc6:	87aa                	mv	a5,a0
    80000cc8:	1602                	slli	a2,a2,0x20
    80000cca:	9201                	srli	a2,a2,0x20
    80000ccc:	00a60733          	add	a4,a2,a0
    cdst[i] = c;
    80000cd0:	00b78023          	sb	a1,0(a5)
  for(i = 0; i < n; i++){
    80000cd4:	0785                	addi	a5,a5,1
    80000cd6:	fee79de3          	bne	a5,a4,80000cd0 <memset+0x12>
  }
  return dst;
}
    80000cda:	6422                	ld	s0,8(sp)
    80000cdc:	0141                	addi	sp,sp,16
    80000cde:	8082                	ret

0000000080000ce0 <memcmp>:

int
memcmp(const void *v1, const void *v2, uint n)
{
    80000ce0:	1141                	addi	sp,sp,-16
    80000ce2:	e422                	sd	s0,8(sp)
    80000ce4:	0800                	addi	s0,sp,16
  const uchar *s1, *s2;

  s1 = v1;
  s2 = v2;
  while(n-- > 0){
    80000ce6:	ca05                	beqz	a2,80000d16 <memcmp+0x36>
    80000ce8:	fff6069b          	addiw	a3,a2,-1
    80000cec:	1682                	slli	a3,a3,0x20
    80000cee:	9281                	srli	a3,a3,0x20
    80000cf0:	0685                	addi	a3,a3,1
    80000cf2:	96aa                	add	a3,a3,a0
    if(*s1 != *s2)
    80000cf4:	00054783          	lbu	a5,0(a0)
    80000cf8:	0005c703          	lbu	a4,0(a1)
    80000cfc:	00e79863          	bne	a5,a4,80000d0c <memcmp+0x2c>
      return *s1 - *s2;
    s1++, s2++;
    80000d00:	0505                	addi	a0,a0,1
    80000d02:	0585                	addi	a1,a1,1
  while(n-- > 0){
    80000d04:	fed518e3          	bne	a0,a3,80000cf4 <memcmp+0x14>
  }

  return 0;
    80000d08:	4501                	li	a0,0
    80000d0a:	a019                	j	80000d10 <memcmp+0x30>
      return *s1 - *s2;
    80000d0c:	40e7853b          	subw	a0,a5,a4
}
    80000d10:	6422                	ld	s0,8(sp)
    80000d12:	0141                	addi	sp,sp,16
    80000d14:	8082                	ret
  return 0;
    80000d16:	4501                	li	a0,0
    80000d18:	bfe5                	j	80000d10 <memcmp+0x30>

0000000080000d1a <memmove>:

void*
memmove(void *dst, const void *src, uint n)
{
    80000d1a:	1141                	addi	sp,sp,-16
    80000d1c:	e422                	sd	s0,8(sp)
    80000d1e:	0800                	addi	s0,sp,16
  const char *s;
  char *d;

  s = src;
  d = dst;
  if(s < d && s + n > d){
    80000d20:	02a5e563          	bltu	a1,a0,80000d4a <memmove+0x30>
    s += n;
    d += n;
    while(n-- > 0)
      *--d = *--s;
  } else
    while(n-- > 0)
    80000d24:	fff6069b          	addiw	a3,a2,-1
    80000d28:	ce11                	beqz	a2,80000d44 <memmove+0x2a>
    80000d2a:	1682                	slli	a3,a3,0x20
    80000d2c:	9281                	srli	a3,a3,0x20
    80000d2e:	0685                	addi	a3,a3,1
    80000d30:	96ae                	add	a3,a3,a1
    80000d32:	87aa                	mv	a5,a0
      *d++ = *s++;
    80000d34:	0585                	addi	a1,a1,1
    80000d36:	0785                	addi	a5,a5,1
    80000d38:	fff5c703          	lbu	a4,-1(a1)
    80000d3c:	fee78fa3          	sb	a4,-1(a5)
    while(n-- > 0)
    80000d40:	fed59ae3          	bne	a1,a3,80000d34 <memmove+0x1a>

  return dst;
}
    80000d44:	6422                	ld	s0,8(sp)
    80000d46:	0141                	addi	sp,sp,16
    80000d48:	8082                	ret
  if(s < d && s + n > d){
    80000d4a:	02061713          	slli	a4,a2,0x20
    80000d4e:	9301                	srli	a4,a4,0x20
    80000d50:	00e587b3          	add	a5,a1,a4
    80000d54:	fcf578e3          	bgeu	a0,a5,80000d24 <memmove+0xa>
    d += n;
    80000d58:	972a                	add	a4,a4,a0
    while(n-- > 0)
    80000d5a:	fff6069b          	addiw	a3,a2,-1
    80000d5e:	d27d                	beqz	a2,80000d44 <memmove+0x2a>
    80000d60:	02069613          	slli	a2,a3,0x20
    80000d64:	9201                	srli	a2,a2,0x20
    80000d66:	fff64613          	not	a2,a2
    80000d6a:	963e                	add	a2,a2,a5
      *--d = *--s;
    80000d6c:	17fd                	addi	a5,a5,-1
    80000d6e:	177d                	addi	a4,a4,-1
    80000d70:	0007c683          	lbu	a3,0(a5)
    80000d74:	00d70023          	sb	a3,0(a4)
    while(n-- > 0)
    80000d78:	fef61ae3          	bne	a2,a5,80000d6c <memmove+0x52>
    80000d7c:	b7e1                	j	80000d44 <memmove+0x2a>

0000000080000d7e <memcpy>:

// memcpy exists to placate GCC.  Use memmove.
void*
memcpy(void *dst, const void *src, uint n)
{
    80000d7e:	1141                	addi	sp,sp,-16
    80000d80:	e406                	sd	ra,8(sp)
    80000d82:	e022                	sd	s0,0(sp)
    80000d84:	0800                	addi	s0,sp,16
  return memmove(dst, src, n);
    80000d86:	00000097          	auipc	ra,0x0
    80000d8a:	f94080e7          	jalr	-108(ra) # 80000d1a <memmove>
}
    80000d8e:	60a2                	ld	ra,8(sp)
    80000d90:	6402                	ld	s0,0(sp)
    80000d92:	0141                	addi	sp,sp,16
    80000d94:	8082                	ret

0000000080000d96 <strncmp>:

int
strncmp(const char *p, const char *q, uint n)
{
    80000d96:	1141                	addi	sp,sp,-16
    80000d98:	e422                	sd	s0,8(sp)
    80000d9a:	0800                	addi	s0,sp,16
  while(n > 0 && *p && *p == *q)
    80000d9c:	ce11                	beqz	a2,80000db8 <strncmp+0x22>
    80000d9e:	00054783          	lbu	a5,0(a0)
    80000da2:	cf89                	beqz	a5,80000dbc <strncmp+0x26>
    80000da4:	0005c703          	lbu	a4,0(a1)
    80000da8:	00f71a63          	bne	a4,a5,80000dbc <strncmp+0x26>
    n--, p++, q++;
    80000dac:	367d                	addiw	a2,a2,-1
    80000dae:	0505                	addi	a0,a0,1
    80000db0:	0585                	addi	a1,a1,1
  while(n > 0 && *p && *p == *q)
    80000db2:	f675                	bnez	a2,80000d9e <strncmp+0x8>
  if(n == 0)
    return 0;
    80000db4:	4501                	li	a0,0
    80000db6:	a809                	j	80000dc8 <strncmp+0x32>
    80000db8:	4501                	li	a0,0
    80000dba:	a039                	j	80000dc8 <strncmp+0x32>
  if(n == 0)
    80000dbc:	ca09                	beqz	a2,80000dce <strncmp+0x38>
  return (uchar)*p - (uchar)*q;
    80000dbe:	00054503          	lbu	a0,0(a0)
    80000dc2:	0005c783          	lbu	a5,0(a1)
    80000dc6:	9d1d                	subw	a0,a0,a5
}
    80000dc8:	6422                	ld	s0,8(sp)
    80000dca:	0141                	addi	sp,sp,16
    80000dcc:	8082                	ret
    return 0;
    80000dce:	4501                	li	a0,0
    80000dd0:	bfe5                	j	80000dc8 <strncmp+0x32>

0000000080000dd2 <strncpy>:

char*
strncpy(char *s, const char *t, int n)
{
    80000dd2:	1141                	addi	sp,sp,-16
    80000dd4:	e422                	sd	s0,8(sp)
    80000dd6:	0800                	addi	s0,sp,16
  char *os;

  os = s;
  while(n-- > 0 && (*s++ = *t++) != 0)
    80000dd8:	872a                	mv	a4,a0
    80000dda:	8832                	mv	a6,a2
    80000ddc:	367d                	addiw	a2,a2,-1
    80000dde:	01005963          	blez	a6,80000df0 <strncpy+0x1e>
    80000de2:	0705                	addi	a4,a4,1
    80000de4:	0005c783          	lbu	a5,0(a1)
    80000de8:	fef70fa3          	sb	a5,-1(a4)
    80000dec:	0585                	addi	a1,a1,1
    80000dee:	f7f5                	bnez	a5,80000dda <strncpy+0x8>
    ;
  while(n-- > 0)
    80000df0:	86ba                	mv	a3,a4
    80000df2:	00c05c63          	blez	a2,80000e0a <strncpy+0x38>
    *s++ = 0;
    80000df6:	0685                	addi	a3,a3,1
    80000df8:	fe068fa3          	sb	zero,-1(a3)
  while(n-- > 0)
    80000dfc:	fff6c793          	not	a5,a3
    80000e00:	9fb9                	addw	a5,a5,a4
    80000e02:	010787bb          	addw	a5,a5,a6
    80000e06:	fef048e3          	bgtz	a5,80000df6 <strncpy+0x24>
  return os;
}
    80000e0a:	6422                	ld	s0,8(sp)
    80000e0c:	0141                	addi	sp,sp,16
    80000e0e:	8082                	ret

0000000080000e10 <safestrcpy>:

// Like strncpy but guaranteed to NUL-terminate.
char*
safestrcpy(char *s, const char *t, int n)
{
    80000e10:	1141                	addi	sp,sp,-16
    80000e12:	e422                	sd	s0,8(sp)
    80000e14:	0800                	addi	s0,sp,16
  char *os;

  os = s;
  if(n <= 0)
    80000e16:	02c05363          	blez	a2,80000e3c <safestrcpy+0x2c>
    80000e1a:	fff6069b          	addiw	a3,a2,-1
    80000e1e:	1682                	slli	a3,a3,0x20
    80000e20:	9281                	srli	a3,a3,0x20
    80000e22:	96ae                	add	a3,a3,a1
    80000e24:	87aa                	mv	a5,a0
    return os;
  while(--n > 0 && (*s++ = *t++) != 0)
    80000e26:	00d58963          	beq	a1,a3,80000e38 <safestrcpy+0x28>
    80000e2a:	0585                	addi	a1,a1,1
    80000e2c:	0785                	addi	a5,a5,1
    80000e2e:	fff5c703          	lbu	a4,-1(a1)
    80000e32:	fee78fa3          	sb	a4,-1(a5)
    80000e36:	fb65                	bnez	a4,80000e26 <safestrcpy+0x16>
    ;
  *s = 0;
    80000e38:	00078023          	sb	zero,0(a5)
  return os;
}
    80000e3c:	6422                	ld	s0,8(sp)
    80000e3e:	0141                	addi	sp,sp,16
    80000e40:	8082                	ret

0000000080000e42 <strlen>:

int
strlen(const char *s)
{
    80000e42:	1141                	addi	sp,sp,-16
    80000e44:	e422                	sd	s0,8(sp)
    80000e46:	0800                	addi	s0,sp,16
  int n;

  for(n = 0; s[n]; n++)
    80000e48:	00054783          	lbu	a5,0(a0)
    80000e4c:	cf91                	beqz	a5,80000e68 <strlen+0x26>
    80000e4e:	0505                	addi	a0,a0,1
    80000e50:	87aa                	mv	a5,a0
    80000e52:	4685                	li	a3,1
    80000e54:	9e89                	subw	a3,a3,a0
    80000e56:	00f6853b          	addw	a0,a3,a5
    80000e5a:	0785                	addi	a5,a5,1
    80000e5c:	fff7c703          	lbu	a4,-1(a5)
    80000e60:	fb7d                	bnez	a4,80000e56 <strlen+0x14>
    ;
  return n;
}
    80000e62:	6422                	ld	s0,8(sp)
    80000e64:	0141                	addi	sp,sp,16
    80000e66:	8082                	ret
  for(n = 0; s[n]; n++)
    80000e68:	4501                	li	a0,0
    80000e6a:	bfe5                	j	80000e62 <strlen+0x20>

0000000080000e6c <main>:
volatile static int started = 0;

// start() jumps here in supervisor mode on all CPUs.
void
main()
{
    80000e6c:	1141                	addi	sp,sp,-16
    80000e6e:	e406                	sd	ra,8(sp)
    80000e70:	e022                	sd	s0,0(sp)
    80000e72:	0800                	addi	s0,sp,16
  if(cpuid() == 0){
    80000e74:	00001097          	auipc	ra,0x1
    80000e78:	364080e7          	jalr	868(ra) # 800021d8 <cpuid>
    virtio_disk_init(); // emulated hard disk
    userinit();      // first user process
    __sync_synchronize();
    started = 1;
  } else {
    while(started == 0)
    80000e7c:	00009717          	auipc	a4,0x9
    80000e80:	19c70713          	addi	a4,a4,412 # 8000a018 <started>
  if(cpuid() == 0){
    80000e84:	c139                	beqz	a0,80000eca <main+0x5e>
    while(started == 0)
    80000e86:	431c                	lw	a5,0(a4)
    80000e88:	2781                	sext.w	a5,a5
    80000e8a:	dff5                	beqz	a5,80000e86 <main+0x1a>
      ;
    __sync_synchronize();
    80000e8c:	0ff0000f          	fence
    printf("hart %d starting\n", cpuid());
    80000e90:	00001097          	auipc	ra,0x1
    80000e94:	348080e7          	jalr	840(ra) # 800021d8 <cpuid>
    80000e98:	85aa                	mv	a1,a0
    80000e9a:	00008517          	auipc	a0,0x8
    80000e9e:	21e50513          	addi	a0,a0,542 # 800090b8 <digits+0x78>
    80000ea2:	fffff097          	auipc	ra,0xfffff
    80000ea6:	6d2080e7          	jalr	1746(ra) # 80000574 <printf>
    kvminithart();    // turn on paging
    80000eaa:	00000097          	auipc	ra,0x0
    80000eae:	0d8080e7          	jalr	216(ra) # 80000f82 <kvminithart>
    trapinithart();   // install kernel trap vector
    80000eb2:	00002097          	auipc	ra,0x2
    80000eb6:	0f6080e7          	jalr	246(ra) # 80002fa8 <trapinithart>
    plicinithart();   // ask PLIC for device interrupts
    80000eba:	00006097          	auipc	ra,0x6
    80000ebe:	c06080e7          	jalr	-1018(ra) # 80006ac0 <plicinithart>
  }

  scheduler();        
    80000ec2:	00002097          	auipc	ra,0x2
    80000ec6:	984080e7          	jalr	-1660(ra) # 80002846 <scheduler>
    consoleinit();
    80000eca:	fffff097          	auipc	ra,0xfffff
    80000ece:	572080e7          	jalr	1394(ra) # 8000043c <consoleinit>
    printfinit();
    80000ed2:	00000097          	auipc	ra,0x0
    80000ed6:	882080e7          	jalr	-1918(ra) # 80000754 <printfinit>
    printf("\n");
    80000eda:	00008517          	auipc	a0,0x8
    80000ede:	4fe50513          	addi	a0,a0,1278 # 800093d8 <digits+0x398>
    80000ee2:	fffff097          	auipc	ra,0xfffff
    80000ee6:	692080e7          	jalr	1682(ra) # 80000574 <printf>
    printf("xv6 kernel is booting\n");
    80000eea:	00008517          	auipc	a0,0x8
    80000eee:	1b650513          	addi	a0,a0,438 # 800090a0 <digits+0x60>
    80000ef2:	fffff097          	auipc	ra,0xfffff
    80000ef6:	682080e7          	jalr	1666(ra) # 80000574 <printf>
    printf("\n");
    80000efa:	00008517          	auipc	a0,0x8
    80000efe:	4de50513          	addi	a0,a0,1246 # 800093d8 <digits+0x398>
    80000f02:	fffff097          	auipc	ra,0xfffff
    80000f06:	672080e7          	jalr	1650(ra) # 80000574 <printf>
    kinit();         // physical page allocator
    80000f0a:	00000097          	auipc	ra,0x0
    80000f0e:	b8c080e7          	jalr	-1140(ra) # 80000a96 <kinit>
    kvminit();       // create kernel page table
    80000f12:	00000097          	auipc	ra,0x0
    80000f16:	356080e7          	jalr	854(ra) # 80001268 <kvminit>
    kvminithart();   // turn on paging
    80000f1a:	00000097          	auipc	ra,0x0
    80000f1e:	068080e7          	jalr	104(ra) # 80000f82 <kvminithart>
    procinit();      // process table
    80000f22:	00001097          	auipc	ra,0x1
    80000f26:	206080e7          	jalr	518(ra) # 80002128 <procinit>
    trapinit();      // trap vectors
    80000f2a:	00002097          	auipc	ra,0x2
    80000f2e:	056080e7          	jalr	86(ra) # 80002f80 <trapinit>
    trapinithart();  // install kernel trap vector
    80000f32:	00002097          	auipc	ra,0x2
    80000f36:	076080e7          	jalr	118(ra) # 80002fa8 <trapinithart>
    plicinit();      // set up interrupt controller
    80000f3a:	00006097          	auipc	ra,0x6
    80000f3e:	b70080e7          	jalr	-1168(ra) # 80006aaa <plicinit>
    plicinithart();  // ask PLIC for device interrupts
    80000f42:	00006097          	auipc	ra,0x6
    80000f46:	b7e080e7          	jalr	-1154(ra) # 80006ac0 <plicinithart>
    binit();         // buffer cache
    80000f4a:	00002097          	auipc	ra,0x2
    80000f4e:	7d6080e7          	jalr	2006(ra) # 80003720 <binit>
    iinit();         // inode cache
    80000f52:	00003097          	auipc	ra,0x3
    80000f56:	e68080e7          	jalr	-408(ra) # 80003dba <iinit>
    fileinit();      // file table
    80000f5a:	00004097          	auipc	ra,0x4
    80000f5e:	128080e7          	jalr	296(ra) # 80005082 <fileinit>
    virtio_disk_init(); // emulated hard disk
    80000f62:	00006097          	auipc	ra,0x6
    80000f66:	c80080e7          	jalr	-896(ra) # 80006be2 <virtio_disk_init>
    userinit();      // first user process
    80000f6a:	00001097          	auipc	ra,0x1
    80000f6e:	5de080e7          	jalr	1502(ra) # 80002548 <userinit>
    __sync_synchronize();
    80000f72:	0ff0000f          	fence
    started = 1;
    80000f76:	4785                	li	a5,1
    80000f78:	00009717          	auipc	a4,0x9
    80000f7c:	0af72023          	sw	a5,160(a4) # 8000a018 <started>
    80000f80:	b789                	j	80000ec2 <main+0x56>

0000000080000f82 <kvminithart>:

// Switch h/w page table register to the kernel's page table,
// and enable paging.
void
kvminithart()
{
    80000f82:	1141                	addi	sp,sp,-16
    80000f84:	e422                	sd	s0,8(sp)
    80000f86:	0800                	addi	s0,sp,16
  w_satp(MAKE_SATP(kernel_pagetable));
    80000f88:	00009797          	auipc	a5,0x9
    80000f8c:	0987b783          	ld	a5,152(a5) # 8000a020 <kernel_pagetable>
    80000f90:	83b1                	srli	a5,a5,0xc
    80000f92:	577d                	li	a4,-1
    80000f94:	177e                	slli	a4,a4,0x3f
    80000f96:	8fd9                	or	a5,a5,a4
  asm volatile("csrw satp, %0" : : "r" (x));
    80000f98:	18079073          	csrw	satp,a5
// flush the TLB.
static inline void
sfence_vma()
{
  // the zero, zero means flush all TLB entries.
  asm volatile("sfence.vma zero, zero");
    80000f9c:	12000073          	sfence.vma
  sfence_vma();
}
    80000fa0:	6422                	ld	s0,8(sp)
    80000fa2:	0141                	addi	sp,sp,16
    80000fa4:	8082                	ret

0000000080000fa6 <walk>:
//   21..29 -- 9 bits of level-1 index.
//   12..20 -- 9 bits of level-0 index.
//    0..11 -- 12 bits of byte offset within the page.
pte_t *
walk(pagetable_t pagetable, uint64 va, int alloc)
{
    80000fa6:	7139                	addi	sp,sp,-64
    80000fa8:	fc06                	sd	ra,56(sp)
    80000faa:	f822                	sd	s0,48(sp)
    80000fac:	f426                	sd	s1,40(sp)
    80000fae:	f04a                	sd	s2,32(sp)
    80000fb0:	ec4e                	sd	s3,24(sp)
    80000fb2:	e852                	sd	s4,16(sp)
    80000fb4:	e456                	sd	s5,8(sp)
    80000fb6:	e05a                	sd	s6,0(sp)
    80000fb8:	0080                	addi	s0,sp,64
    80000fba:	84aa                	mv	s1,a0
    80000fbc:	89ae                	mv	s3,a1
    80000fbe:	8ab2                	mv	s5,a2
  if(va >= MAXVA)
    80000fc0:	57fd                	li	a5,-1
    80000fc2:	83e9                	srli	a5,a5,0x1a
    80000fc4:	4a79                	li	s4,30
    panic("walk");

  for(int level = 2; level > 0; level--) {
    80000fc6:	4b31                	li	s6,12
  if(va >= MAXVA)
    80000fc8:	04b7f263          	bgeu	a5,a1,8000100c <walk+0x66>
    panic("walk");
    80000fcc:	00008517          	auipc	a0,0x8
    80000fd0:	10450513          	addi	a0,a0,260 # 800090d0 <digits+0x90>
    80000fd4:	fffff097          	auipc	ra,0xfffff
    80000fd8:	556080e7          	jalr	1366(ra) # 8000052a <panic>
    pte_t *pte = &pagetable[PX(level, va)];
    if(*pte & PTE_V) {
      pagetable = (pagetable_t)PTE2PA(*pte);
    } else {
      if(!alloc || (pagetable = (pde_t*)kalloc()) == 0)
    80000fdc:	060a8663          	beqz	s5,80001048 <walk+0xa2>
    80000fe0:	00000097          	auipc	ra,0x0
    80000fe4:	af2080e7          	jalr	-1294(ra) # 80000ad2 <kalloc>
    80000fe8:	84aa                	mv	s1,a0
    80000fea:	c529                	beqz	a0,80001034 <walk+0x8e>
        return 0;
      memset(pagetable, 0, PGSIZE);
    80000fec:	6605                	lui	a2,0x1
    80000fee:	4581                	li	a1,0
    80000ff0:	00000097          	auipc	ra,0x0
    80000ff4:	cce080e7          	jalr	-818(ra) # 80000cbe <memset>
      *pte = PA2PTE(pagetable) | PTE_V;
    80000ff8:	00c4d793          	srli	a5,s1,0xc
    80000ffc:	07aa                	slli	a5,a5,0xa
    80000ffe:	0017e793          	ori	a5,a5,1
    80001002:	00f93023          	sd	a5,0(s2)
  for(int level = 2; level > 0; level--) {
    80001006:	3a5d                	addiw	s4,s4,-9
    80001008:	036a0063          	beq	s4,s6,80001028 <walk+0x82>
    pte_t *pte = &pagetable[PX(level, va)];
    8000100c:	0149d933          	srl	s2,s3,s4
    80001010:	1ff97913          	andi	s2,s2,511
    80001014:	090e                	slli	s2,s2,0x3
    80001016:	9926                	add	s2,s2,s1
    if(*pte & PTE_V) {
    80001018:	00093483          	ld	s1,0(s2)
    8000101c:	0014f793          	andi	a5,s1,1
    80001020:	dfd5                	beqz	a5,80000fdc <walk+0x36>
      pagetable = (pagetable_t)PTE2PA(*pte);
    80001022:	80a9                	srli	s1,s1,0xa
    80001024:	04b2                	slli	s1,s1,0xc
    80001026:	b7c5                	j	80001006 <walk+0x60>
    }
  }
  return &pagetable[PX(0, va)];
    80001028:	00c9d513          	srli	a0,s3,0xc
    8000102c:	1ff57513          	andi	a0,a0,511
    80001030:	050e                	slli	a0,a0,0x3
    80001032:	9526                	add	a0,a0,s1
}
    80001034:	70e2                	ld	ra,56(sp)
    80001036:	7442                	ld	s0,48(sp)
    80001038:	74a2                	ld	s1,40(sp)
    8000103a:	7902                	ld	s2,32(sp)
    8000103c:	69e2                	ld	s3,24(sp)
    8000103e:	6a42                	ld	s4,16(sp)
    80001040:	6aa2                	ld	s5,8(sp)
    80001042:	6b02                	ld	s6,0(sp)
    80001044:	6121                	addi	sp,sp,64
    80001046:	8082                	ret
        return 0;
    80001048:	4501                	li	a0,0
    8000104a:	b7ed                	j	80001034 <walk+0x8e>

000000008000104c <walkaddr>:
walkaddr(pagetable_t pagetable, uint64 va)
{
  pte_t *pte;
  uint64 pa;

  if(va >= MAXVA)
    8000104c:	57fd                	li	a5,-1
    8000104e:	83e9                	srli	a5,a5,0x1a
    80001050:	00b7f463          	bgeu	a5,a1,80001058 <walkaddr+0xc>
    return 0;
    80001054:	4501                	li	a0,0
    return 0;
  if((*pte & PTE_U) == 0)
    return 0;
  pa = PTE2PA(*pte);
  return pa;
}
    80001056:	8082                	ret
{
    80001058:	1141                	addi	sp,sp,-16
    8000105a:	e406                	sd	ra,8(sp)
    8000105c:	e022                	sd	s0,0(sp)
    8000105e:	0800                	addi	s0,sp,16
  pte = walk(pagetable, va, 0);
    80001060:	4601                	li	a2,0
    80001062:	00000097          	auipc	ra,0x0
    80001066:	f44080e7          	jalr	-188(ra) # 80000fa6 <walk>
  if(pte == 0)
    8000106a:	c105                	beqz	a0,8000108a <walkaddr+0x3e>
  if((*pte & PTE_V) == 0)
    8000106c:	611c                	ld	a5,0(a0)
  if((*pte & PTE_U) == 0)
    8000106e:	0117f693          	andi	a3,a5,17
    80001072:	4745                	li	a4,17
    return 0;
    80001074:	4501                	li	a0,0
  if((*pte & PTE_U) == 0)
    80001076:	00e68663          	beq	a3,a4,80001082 <walkaddr+0x36>
}
    8000107a:	60a2                	ld	ra,8(sp)
    8000107c:	6402                	ld	s0,0(sp)
    8000107e:	0141                	addi	sp,sp,16
    80001080:	8082                	ret
  pa = PTE2PA(*pte);
    80001082:	00a7d513          	srli	a0,a5,0xa
    80001086:	0532                	slli	a0,a0,0xc
  return pa;
    80001088:	bfcd                	j	8000107a <walkaddr+0x2e>
    return 0;
    8000108a:	4501                	li	a0,0
    8000108c:	b7fd                	j	8000107a <walkaddr+0x2e>

000000008000108e <mappages>:
// physical addresses starting at pa. va and size might not
// be page-aligned. Returns 0 on success, -1 if walk() couldn't
// allocate a needed page-table page.
int
mappages(pagetable_t pagetable, uint64 va, uint64 size, uint64 pa, int perm)
{
    8000108e:	715d                	addi	sp,sp,-80
    80001090:	e486                	sd	ra,72(sp)
    80001092:	e0a2                	sd	s0,64(sp)
    80001094:	fc26                	sd	s1,56(sp)
    80001096:	f84a                	sd	s2,48(sp)
    80001098:	f44e                	sd	s3,40(sp)
    8000109a:	f052                	sd	s4,32(sp)
    8000109c:	ec56                	sd	s5,24(sp)
    8000109e:	e85a                	sd	s6,16(sp)
    800010a0:	e45e                	sd	s7,8(sp)
    800010a2:	e062                	sd	s8,0(sp)
    800010a4:	0880                	addi	s0,sp,80
    800010a6:	8b2a                	mv	s6,a0
    800010a8:	8c2e                	mv	s8,a1
    800010aa:	89ba                	mv	s3,a4
  uint64 a, last;
  pte_t *pte;

  a = PGROUNDDOWN(va);
    800010ac:	777d                	lui	a4,0xfffff
    800010ae:	00e5f7b3          	and	a5,a1,a4
  last = PGROUNDDOWN(va + size - 1);
    800010b2:	fff60a13          	addi	s4,a2,-1 # fff <_entry-0x7ffff001>
    800010b6:	9a2e                	add	s4,s4,a1
    800010b8:	00ea7a33          	and	s4,s4,a4
  a = PGROUNDDOWN(va);
    800010bc:	893e                	mv	s2,a5
    800010be:	40f68ab3          	sub	s5,a3,a5
    if(*pte & PTE_PG){ //if paged out, turn off valid flag 
       *pte &= ~PTE_V;
     }
    if(a == last)
      break;
    a += PGSIZE;
    800010c2:	6b85                	lui	s7,0x1
    800010c4:	a0ad                	j	8000112e <mappages+0xa0>
      printf("In mappages: walk operation failed \n") ;
    800010c6:	00008517          	auipc	a0,0x8
    800010ca:	01250513          	addi	a0,a0,18 # 800090d8 <digits+0x98>
    800010ce:	fffff097          	auipc	ra,0xfffff
    800010d2:	4a6080e7          	jalr	1190(ra) # 80000574 <printf>
      return -1;
    800010d6:	557d                	li	a0,-1
    pa += PGSIZE;
  }
  return 0;
}
    800010d8:	60a6                	ld	ra,72(sp)
    800010da:	6406                	ld	s0,64(sp)
    800010dc:	74e2                	ld	s1,56(sp)
    800010de:	7942                	ld	s2,48(sp)
    800010e0:	79a2                	ld	s3,40(sp)
    800010e2:	7a02                	ld	s4,32(sp)
    800010e4:	6ae2                	ld	s5,24(sp)
    800010e6:	6b42                	ld	s6,16(sp)
    800010e8:	6ba2                	ld	s7,8(sp)
    800010ea:	6c02                	ld	s8,0(sp)
    800010ec:	6161                	addi	sp,sp,80
    800010ee:	8082                	ret
      printf("a is %d \n", a);
    800010f0:	85ca                	mv	a1,s2
    800010f2:	00008517          	auipc	a0,0x8
    800010f6:	00e50513          	addi	a0,a0,14 # 80009100 <digits+0xc0>
    800010fa:	fffff097          	auipc	ra,0xfffff
    800010fe:	47a080e7          	jalr	1146(ra) # 80000574 <printf>
      printf("va is %d \n", va);
    80001102:	85e2                	mv	a1,s8
    80001104:	00008517          	auipc	a0,0x8
    80001108:	20c50513          	addi	a0,a0,524 # 80009310 <digits+0x2d0>
    8000110c:	fffff097          	auipc	ra,0xfffff
    80001110:	468080e7          	jalr	1128(ra) # 80000574 <printf>
      panic("remap");
    80001114:	00008517          	auipc	a0,0x8
    80001118:	ffc50513          	addi	a0,a0,-4 # 80009110 <digits+0xd0>
    8000111c:	fffff097          	auipc	ra,0xfffff
    80001120:	40e080e7          	jalr	1038(ra) # 8000052a <panic>
       *pte &= ~PTE_V;
    80001124:	98f9                	andi	s1,s1,-2
    80001126:	e104                	sd	s1,0(a0)
    if(a == last)
    80001128:	03490b63          	beq	s2,s4,8000115e <mappages+0xd0>
    a += PGSIZE;
    8000112c:	995e                	add	s2,s2,s7
  for(;;){
    8000112e:	012a84b3          	add	s1,s5,s2
    if((pte = walk(pagetable, a, 1)) == 0){
    80001132:	4605                	li	a2,1
    80001134:	85ca                	mv	a1,s2
    80001136:	855a                	mv	a0,s6
    80001138:	00000097          	auipc	ra,0x0
    8000113c:	e6e080e7          	jalr	-402(ra) # 80000fa6 <walk>
    80001140:	d159                	beqz	a0,800010c6 <mappages+0x38>
    if(*pte & PTE_V){
    80001142:	611c                	ld	a5,0(a0)
    80001144:	8b85                	andi	a5,a5,1
    80001146:	f7cd                	bnez	a5,800010f0 <mappages+0x62>
    *pte = PA2PTE(pa) | perm | PTE_V;
    80001148:	80b1                	srli	s1,s1,0xc
    8000114a:	04aa                	slli	s1,s1,0xa
    8000114c:	0134e4b3          	or	s1,s1,s3
    if(*pte & PTE_PG){ //if paged out, turn off valid flag 
    80001150:	2009f793          	andi	a5,s3,512
    80001154:	fbe1                	bnez	a5,80001124 <mappages+0x96>
    *pte = PA2PTE(pa) | perm | PTE_V;
    80001156:	0014e493          	ori	s1,s1,1
    8000115a:	e104                	sd	s1,0(a0)
    8000115c:	b7f1                	j	80001128 <mappages+0x9a>
  return 0;
    8000115e:	4501                	li	a0,0
    80001160:	bfa5                	j	800010d8 <mappages+0x4a>

0000000080001162 <kvmmap>:
{
    80001162:	1141                	addi	sp,sp,-16
    80001164:	e406                	sd	ra,8(sp)
    80001166:	e022                	sd	s0,0(sp)
    80001168:	0800                	addi	s0,sp,16
    8000116a:	87b6                	mv	a5,a3
  if(mappages(kpgtbl, va, sz, pa, perm) != 0)
    8000116c:	86b2                	mv	a3,a2
    8000116e:	863e                	mv	a2,a5
    80001170:	00000097          	auipc	ra,0x0
    80001174:	f1e080e7          	jalr	-226(ra) # 8000108e <mappages>
    80001178:	e509                	bnez	a0,80001182 <kvmmap+0x20>
}
    8000117a:	60a2                	ld	ra,8(sp)
    8000117c:	6402                	ld	s0,0(sp)
    8000117e:	0141                	addi	sp,sp,16
    80001180:	8082                	ret
    panic("kvmmap");
    80001182:	00008517          	auipc	a0,0x8
    80001186:	f9650513          	addi	a0,a0,-106 # 80009118 <digits+0xd8>
    8000118a:	fffff097          	auipc	ra,0xfffff
    8000118e:	3a0080e7          	jalr	928(ra) # 8000052a <panic>

0000000080001192 <kvmmake>:
{
    80001192:	1101                	addi	sp,sp,-32
    80001194:	ec06                	sd	ra,24(sp)
    80001196:	e822                	sd	s0,16(sp)
    80001198:	e426                	sd	s1,8(sp)
    8000119a:	e04a                	sd	s2,0(sp)
    8000119c:	1000                	addi	s0,sp,32
  kpgtbl = (pagetable_t) kalloc();
    8000119e:	00000097          	auipc	ra,0x0
    800011a2:	934080e7          	jalr	-1740(ra) # 80000ad2 <kalloc>
    800011a6:	84aa                	mv	s1,a0
  memset(kpgtbl, 0, PGSIZE);
    800011a8:	6605                	lui	a2,0x1
    800011aa:	4581                	li	a1,0
    800011ac:	00000097          	auipc	ra,0x0
    800011b0:	b12080e7          	jalr	-1262(ra) # 80000cbe <memset>
  kvmmap(kpgtbl, UART0, UART0, PGSIZE, PTE_R | PTE_W);
    800011b4:	4719                	li	a4,6
    800011b6:	6685                	lui	a3,0x1
    800011b8:	10000637          	lui	a2,0x10000
    800011bc:	100005b7          	lui	a1,0x10000
    800011c0:	8526                	mv	a0,s1
    800011c2:	00000097          	auipc	ra,0x0
    800011c6:	fa0080e7          	jalr	-96(ra) # 80001162 <kvmmap>
  kvmmap(kpgtbl, VIRTIO0, VIRTIO0, PGSIZE, PTE_R | PTE_W);
    800011ca:	4719                	li	a4,6
    800011cc:	6685                	lui	a3,0x1
    800011ce:	10001637          	lui	a2,0x10001
    800011d2:	100015b7          	lui	a1,0x10001
    800011d6:	8526                	mv	a0,s1
    800011d8:	00000097          	auipc	ra,0x0
    800011dc:	f8a080e7          	jalr	-118(ra) # 80001162 <kvmmap>
  kvmmap(kpgtbl, PLIC, PLIC, 0x400000, PTE_R | PTE_W);
    800011e0:	4719                	li	a4,6
    800011e2:	004006b7          	lui	a3,0x400
    800011e6:	0c000637          	lui	a2,0xc000
    800011ea:	0c0005b7          	lui	a1,0xc000
    800011ee:	8526                	mv	a0,s1
    800011f0:	00000097          	auipc	ra,0x0
    800011f4:	f72080e7          	jalr	-142(ra) # 80001162 <kvmmap>
  kvmmap(kpgtbl, KERNBASE, KERNBASE, (uint64)etext-KERNBASE, PTE_R | PTE_X);
    800011f8:	00008917          	auipc	s2,0x8
    800011fc:	e0890913          	addi	s2,s2,-504 # 80009000 <etext>
    80001200:	4729                	li	a4,10
    80001202:	80008697          	auipc	a3,0x80008
    80001206:	dfe68693          	addi	a3,a3,-514 # 9000 <_entry-0x7fff7000>
    8000120a:	4605                	li	a2,1
    8000120c:	067e                	slli	a2,a2,0x1f
    8000120e:	85b2                	mv	a1,a2
    80001210:	8526                	mv	a0,s1
    80001212:	00000097          	auipc	ra,0x0
    80001216:	f50080e7          	jalr	-176(ra) # 80001162 <kvmmap>
  kvmmap(kpgtbl, (uint64)etext, (uint64)etext, PHYSTOP-(uint64)etext, PTE_R | PTE_W);
    8000121a:	4719                	li	a4,6
    8000121c:	46c5                	li	a3,17
    8000121e:	06ee                	slli	a3,a3,0x1b
    80001220:	412686b3          	sub	a3,a3,s2
    80001224:	864a                	mv	a2,s2
    80001226:	85ca                	mv	a1,s2
    80001228:	8526                	mv	a0,s1
    8000122a:	00000097          	auipc	ra,0x0
    8000122e:	f38080e7          	jalr	-200(ra) # 80001162 <kvmmap>
  kvmmap(kpgtbl, TRAMPOLINE, (uint64)trampoline, PGSIZE, PTE_R | PTE_X);
    80001232:	4729                	li	a4,10
    80001234:	6685                	lui	a3,0x1
    80001236:	00007617          	auipc	a2,0x7
    8000123a:	dca60613          	addi	a2,a2,-566 # 80008000 <_trampoline>
    8000123e:	040005b7          	lui	a1,0x4000
    80001242:	15fd                	addi	a1,a1,-1
    80001244:	05b2                	slli	a1,a1,0xc
    80001246:	8526                	mv	a0,s1
    80001248:	00000097          	auipc	ra,0x0
    8000124c:	f1a080e7          	jalr	-230(ra) # 80001162 <kvmmap>
  proc_mapstacks(kpgtbl);
    80001250:	8526                	mv	a0,s1
    80001252:	00001097          	auipc	ra,0x1
    80001256:	e40080e7          	jalr	-448(ra) # 80002092 <proc_mapstacks>
}
    8000125a:	8526                	mv	a0,s1
    8000125c:	60e2                	ld	ra,24(sp)
    8000125e:	6442                	ld	s0,16(sp)
    80001260:	64a2                	ld	s1,8(sp)
    80001262:	6902                	ld	s2,0(sp)
    80001264:	6105                	addi	sp,sp,32
    80001266:	8082                	ret

0000000080001268 <kvminit>:
{
    80001268:	1141                	addi	sp,sp,-16
    8000126a:	e406                	sd	ra,8(sp)
    8000126c:	e022                	sd	s0,0(sp)
    8000126e:	0800                	addi	s0,sp,16
  kernel_pagetable = kvmmake();
    80001270:	00000097          	auipc	ra,0x0
    80001274:	f22080e7          	jalr	-222(ra) # 80001192 <kvmmake>
    80001278:	00009797          	auipc	a5,0x9
    8000127c:	daa7b423          	sd	a0,-600(a5) # 8000a020 <kernel_pagetable>
}
    80001280:	60a2                	ld	ra,8(sp)
    80001282:	6402                	ld	s0,0(sp)
    80001284:	0141                	addi	sp,sp,16
    80001286:	8082                	ret

0000000080001288 <uvmunmap>:
// Remove npages of mappings starting from va. va must be
// page-aligned. The mappings must exist.
// Optionally free the physical memory.
void
uvmunmap(pagetable_t pagetable, uint64 va, uint64 npages, int do_free)
{
    80001288:	715d                	addi	sp,sp,-80
    8000128a:	e486                	sd	ra,72(sp)
    8000128c:	e0a2                	sd	s0,64(sp)
    8000128e:	fc26                	sd	s1,56(sp)
    80001290:	f84a                	sd	s2,48(sp)
    80001292:	f44e                	sd	s3,40(sp)
    80001294:	f052                	sd	s4,32(sp)
    80001296:	ec56                	sd	s5,24(sp)
    80001298:	e85a                	sd	s6,16(sp)
    8000129a:	e45e                	sd	s7,8(sp)
    8000129c:	0880                	addi	s0,sp,80
  uint64 a;
  pte_t *pte;

  if((va % PGSIZE) != 0)
    8000129e:	03459793          	slli	a5,a1,0x34
    800012a2:	e795                	bnez	a5,800012ce <uvmunmap+0x46>
    800012a4:	8a2a                	mv	s4,a0
    800012a6:	892e                	mv	s2,a1
    800012a8:	8ab6                	mv	s5,a3
    panic("uvmunmap: not aligned");

  for(a = va; a < va + npages*PGSIZE; a += PGSIZE){
    800012aa:	0632                	slli	a2,a2,0xc
    800012ac:	00b609b3          	add	s3,a2,a1
    if((pte = walk(pagetable, a, 0)) == 0)
      panic("uvmunmap: walk");
    if((*pte & PTE_V) == 0 && (*pte & PTE_PG) == 0)
      panic("uvmunmap: not mapped");
    if(PTE_FLAGS(*pte) == PTE_V)
    800012b0:	4b85                	li	s7,1
  for(a = va; a < va + npages*PGSIZE; a += PGSIZE){
    800012b2:	6b05                	lui	s6,0x1
    800012b4:	0735e263          	bltu	a1,s3,80001318 <uvmunmap+0x90>
      uint64 pa = PTE2PA(*pte);
      kfree((void*)pa);
    }
    *pte = 0;
  }
}
    800012b8:	60a6                	ld	ra,72(sp)
    800012ba:	6406                	ld	s0,64(sp)
    800012bc:	74e2                	ld	s1,56(sp)
    800012be:	7942                	ld	s2,48(sp)
    800012c0:	79a2                	ld	s3,40(sp)
    800012c2:	7a02                	ld	s4,32(sp)
    800012c4:	6ae2                	ld	s5,24(sp)
    800012c6:	6b42                	ld	s6,16(sp)
    800012c8:	6ba2                	ld	s7,8(sp)
    800012ca:	6161                	addi	sp,sp,80
    800012cc:	8082                	ret
    panic("uvmunmap: not aligned");
    800012ce:	00008517          	auipc	a0,0x8
    800012d2:	e5250513          	addi	a0,a0,-430 # 80009120 <digits+0xe0>
    800012d6:	fffff097          	auipc	ra,0xfffff
    800012da:	254080e7          	jalr	596(ra) # 8000052a <panic>
      panic("uvmunmap: walk");
    800012de:	00008517          	auipc	a0,0x8
    800012e2:	e5a50513          	addi	a0,a0,-422 # 80009138 <digits+0xf8>
    800012e6:	fffff097          	auipc	ra,0xfffff
    800012ea:	244080e7          	jalr	580(ra) # 8000052a <panic>
      panic("uvmunmap: not mapped");
    800012ee:	00008517          	auipc	a0,0x8
    800012f2:	e5a50513          	addi	a0,a0,-422 # 80009148 <digits+0x108>
    800012f6:	fffff097          	auipc	ra,0xfffff
    800012fa:	234080e7          	jalr	564(ra) # 8000052a <panic>
      panic("uvmunmap: not a leaf");
    800012fe:	00008517          	auipc	a0,0x8
    80001302:	e6250513          	addi	a0,a0,-414 # 80009160 <digits+0x120>
    80001306:	fffff097          	auipc	ra,0xfffff
    8000130a:	224080e7          	jalr	548(ra) # 8000052a <panic>
    *pte = 0;
    8000130e:	0004b023          	sd	zero,0(s1)
  for(a = va; a < va + npages*PGSIZE; a += PGSIZE){
    80001312:	995a                	add	s2,s2,s6
    80001314:	fb3972e3          	bgeu	s2,s3,800012b8 <uvmunmap+0x30>
    if((pte = walk(pagetable, a, 0)) == 0)
    80001318:	4601                	li	a2,0
    8000131a:	85ca                	mv	a1,s2
    8000131c:	8552                	mv	a0,s4
    8000131e:	00000097          	auipc	ra,0x0
    80001322:	c88080e7          	jalr	-888(ra) # 80000fa6 <walk>
    80001326:	84aa                	mv	s1,a0
    80001328:	d95d                	beqz	a0,800012de <uvmunmap+0x56>
    if((*pte & PTE_V) == 0 && (*pte & PTE_PG) == 0)
    8000132a:	6108                	ld	a0,0(a0)
    8000132c:	20157793          	andi	a5,a0,513
    80001330:	dfdd                	beqz	a5,800012ee <uvmunmap+0x66>
    if(PTE_FLAGS(*pte) == PTE_V)
    80001332:	3ff57793          	andi	a5,a0,1023
    80001336:	fd7784e3          	beq	a5,s7,800012fe <uvmunmap+0x76>
    if(do_free){
    8000133a:	fc0a8ae3          	beqz	s5,8000130e <uvmunmap+0x86>
      uint64 pa = PTE2PA(*pte);
    8000133e:	8129                	srli	a0,a0,0xa
      kfree((void*)pa);
    80001340:	0532                	slli	a0,a0,0xc
    80001342:	fffff097          	auipc	ra,0xfffff
    80001346:	694080e7          	jalr	1684(ra) # 800009d6 <kfree>
    8000134a:	b7d1                	j	8000130e <uvmunmap+0x86>

000000008000134c <uvmcreate>:

// create an empty user page table.
// returns 0 if out of memory.
pagetable_t
uvmcreate()
{
    8000134c:	1101                	addi	sp,sp,-32
    8000134e:	ec06                	sd	ra,24(sp)
    80001350:	e822                	sd	s0,16(sp)
    80001352:	e426                	sd	s1,8(sp)
    80001354:	1000                	addi	s0,sp,32
  pagetable_t pagetable;
  pagetable = (pagetable_t) kalloc();
    80001356:	fffff097          	auipc	ra,0xfffff
    8000135a:	77c080e7          	jalr	1916(ra) # 80000ad2 <kalloc>
    8000135e:	84aa                	mv	s1,a0
  if(pagetable == 0)
    80001360:	c519                	beqz	a0,8000136e <uvmcreate+0x22>
    return 0;
  memset(pagetable, 0, PGSIZE);
    80001362:	6605                	lui	a2,0x1
    80001364:	4581                	li	a1,0
    80001366:	00000097          	auipc	ra,0x0
    8000136a:	958080e7          	jalr	-1704(ra) # 80000cbe <memset>
  return pagetable;
}
    8000136e:	8526                	mv	a0,s1
    80001370:	60e2                	ld	ra,24(sp)
    80001372:	6442                	ld	s0,16(sp)
    80001374:	64a2                	ld	s1,8(sp)
    80001376:	6105                	addi	sp,sp,32
    80001378:	8082                	ret

000000008000137a <uvminit>:
// Load the user initcode into address 0 of pagetable,
// for the very first process.
// sz must be less than a page.
void
uvminit(pagetable_t pagetable, uchar *src, uint sz)
{
    8000137a:	7179                	addi	sp,sp,-48
    8000137c:	f406                	sd	ra,40(sp)
    8000137e:	f022                	sd	s0,32(sp)
    80001380:	ec26                	sd	s1,24(sp)
    80001382:	e84a                	sd	s2,16(sp)
    80001384:	e44e                	sd	s3,8(sp)
    80001386:	e052                	sd	s4,0(sp)
    80001388:	1800                	addi	s0,sp,48
  char *mem;

  if(sz >= PGSIZE)
    8000138a:	6785                	lui	a5,0x1
    8000138c:	04f67863          	bgeu	a2,a5,800013dc <uvminit+0x62>
    80001390:	8a2a                	mv	s4,a0
    80001392:	89ae                	mv	s3,a1
    80001394:	84b2                	mv	s1,a2
    panic("inituvm: more than a page");
  mem = kalloc();
    80001396:	fffff097          	auipc	ra,0xfffff
    8000139a:	73c080e7          	jalr	1852(ra) # 80000ad2 <kalloc>
    8000139e:	892a                	mv	s2,a0
  memset(mem, 0, PGSIZE);
    800013a0:	6605                	lui	a2,0x1
    800013a2:	4581                	li	a1,0
    800013a4:	00000097          	auipc	ra,0x0
    800013a8:	91a080e7          	jalr	-1766(ra) # 80000cbe <memset>
  mappages(pagetable, 0, PGSIZE, (uint64)mem, PTE_W|PTE_R|PTE_X|PTE_U);
    800013ac:	4779                	li	a4,30
    800013ae:	86ca                	mv	a3,s2
    800013b0:	6605                	lui	a2,0x1
    800013b2:	4581                	li	a1,0
    800013b4:	8552                	mv	a0,s4
    800013b6:	00000097          	auipc	ra,0x0
    800013ba:	cd8080e7          	jalr	-808(ra) # 8000108e <mappages>
  memmove(mem, src, sz);
    800013be:	8626                	mv	a2,s1
    800013c0:	85ce                	mv	a1,s3
    800013c2:	854a                	mv	a0,s2
    800013c4:	00000097          	auipc	ra,0x0
    800013c8:	956080e7          	jalr	-1706(ra) # 80000d1a <memmove>
}
    800013cc:	70a2                	ld	ra,40(sp)
    800013ce:	7402                	ld	s0,32(sp)
    800013d0:	64e2                	ld	s1,24(sp)
    800013d2:	6942                	ld	s2,16(sp)
    800013d4:	69a2                	ld	s3,8(sp)
    800013d6:	6a02                	ld	s4,0(sp)
    800013d8:	6145                	addi	sp,sp,48
    800013da:	8082                	ret
    panic("inituvm: more than a page");
    800013dc:	00008517          	auipc	a0,0x8
    800013e0:	d9c50513          	addi	a0,a0,-612 # 80009178 <digits+0x138>
    800013e4:	fffff097          	auipc	ra,0xfffff
    800013e8:	146080e7          	jalr	326(ra) # 8000052a <panic>

00000000800013ec <update_pages_counters>:


// task 1 

void
update_pages_counters(){
    800013ec:	7139                	addi	sp,sp,-64
    800013ee:	fc06                	sd	ra,56(sp)
    800013f0:	f822                	sd	s0,48(sp)
    800013f2:	f426                	sd	s1,40(sp)
    800013f4:	f04a                	sd	s2,32(sp)
    800013f6:	ec4e                	sd	s3,24(sp)
    800013f8:	e852                	sd	s4,16(sp)
    800013fa:	e456                	sd	s5,8(sp)
    800013fc:	0080                	addi	s0,sp,64
  struct proc *p=myproc();
    800013fe:	00001097          	auipc	ra,0x1
    80001402:	e06080e7          	jalr	-506(ra) # 80002204 <myproc>
    80001406:	8a2a                	mv	s4,a0
  for(int i=0 ; i<MAX_PSYC_PAGES; i++){
    80001408:	17050493          	addi	s1,a0,368
    8000140c:	23050993          	addi	s3,a0,560
    if (p->ram_pages.pages[i].is_used){
      pte_t *pte=walk(p->pagetable,p->ram_pages.pages[i].virtual_address,0);
      p->ram_pages.pages[i].page_counter>>=1; //shift counter right
      if (*pte & PTE_A){
        p->ram_pages.pages[i].page_counter |= 1<<31; //put 1 in the msb
    80001410:	80000ab7          	lui	s5,0x80000
    80001414:	a021                	j	8000141c <update_pages_counters+0x30>
  for(int i=0 ; i<MAX_PSYC_PAGES; i++){
    80001416:	04b1                	addi	s1,s1,12
    80001418:	03348d63          	beq	s1,s3,80001452 <update_pages_counters+0x66>
    if (p->ram_pages.pages[i].is_used){
    8000141c:	40dc                	lw	a5,4(s1)
    8000141e:	dfe5                	beqz	a5,80001416 <update_pages_counters+0x2a>
      pte_t *pte=walk(p->pagetable,p->ram_pages.pages[i].virtual_address,0);
    80001420:	4601                	li	a2,0
    80001422:	0004e583          	lwu	a1,0(s1)
    80001426:	050a3503          	ld	a0,80(s4) # fffffffffffff050 <end+0xffffffff7ffd1050>
    8000142a:	00000097          	auipc	ra,0x0
    8000142e:	b7c080e7          	jalr	-1156(ra) # 80000fa6 <walk>
      p->ram_pages.pages[i].page_counter>>=1; //shift counter right
    80001432:	449c                	lw	a5,8(s1)
    80001434:	0017d79b          	srliw	a5,a5,0x1
    80001438:	c49c                	sw	a5,8(s1)
      if (*pte & PTE_A){
    8000143a:	6118                	ld	a4,0(a0)
    8000143c:	04077713          	andi	a4,a4,64
    80001440:	db79                	beqz	a4,80001416 <update_pages_counters+0x2a>
        p->ram_pages.pages[i].page_counter |= 1<<31; //put 1 in the msb
    80001442:	0157e7b3          	or	a5,a5,s5
    80001446:	c49c                	sw	a5,8(s1)
        *pte &= ~PTE_A; //turn off flag
    80001448:	611c                	ld	a5,0(a0)
    8000144a:	fbf7f793          	andi	a5,a5,-65
    8000144e:	e11c                	sd	a5,0(a0)
    80001450:	b7d9                	j	80001416 <update_pages_counters+0x2a>
      }
    }
  }
}
    80001452:	70e2                	ld	ra,56(sp)
    80001454:	7442                	ld	s0,48(sp)
    80001456:	74a2                	ld	s1,40(sp)
    80001458:	7902                	ld	s2,32(sp)
    8000145a:	69e2                	ld	s3,24(sp)
    8000145c:	6a42                	ld	s4,16(sp)
    8000145e:	6aa2                	ld	s5,8(sp)
    80001460:	6121                	addi	sp,sp,64
    80001462:	8082                	ret

0000000080001464 <find_free_page_in_ram>:

//check if there is a free page in ram mem, of so, return it's PSYC addr
int
find_free_page_in_ram(void){
    80001464:	1141                	addi	sp,sp,-16
    80001466:	e406                	sd	ra,8(sp)
    80001468:	e022                	sd	s0,0(sp)
    8000146a:	0800                	addi	s0,sp,16
  int free_index=0;
  struct proc *p =  myproc();
    8000146c:	00001097          	auipc	ra,0x1
    80001470:	d98080e7          	jalr	-616(ra) # 80002204 <myproc>
  while(free_index<16){
    80001474:	17450793          	addi	a5,a0,372
  int free_index=0;
    80001478:	4501                	li	a0,0
  while(free_index<16){
    8000147a:	46c1                	li	a3,16
    //finidng free page in swap file memory
    if(!p->ram_pages.pages[free_index].is_used)
    8000147c:	4398                	lw	a4,0(a5)
    8000147e:	c711                	beqz	a4,8000148a <find_free_page_in_ram+0x26>
      return free_index; 
    else
      free_index++;
    80001480:	2505                	addiw	a0,a0,1
  while(free_index<16){
    80001482:	07b1                	addi	a5,a5,12
    80001484:	fed51ce3          	bne	a0,a3,8000147c <find_free_page_in_ram+0x18>
  }
  return -1;
    80001488:	557d                	li	a0,-1
}
    8000148a:	60a2                	ld	ra,8(sp)
    8000148c:	6402                	ld	s0,0(sp)
    8000148e:	0141                	addi	sp,sp,16
    80001490:	8082                	ret

0000000080001492 <ones_counter>:

// for SELECTION=LAPA ; count num of '1' in page counter
uint 
ones_counter(uint page_counter){
    80001492:	1141                	addi	sp,sp,-16
    80001494:	e422                	sd	s0,8(sp)
    80001496:	0800                	addi	s0,sp,16
    80001498:	87aa                	mv	a5,a0
  uint ones_counter=0;
  uint page_counter_val=page_counter;
  while (page_counter_val > 0){
    8000149a:	c919                	beqz	a0,800014b0 <ones_counter+0x1e>
  uint ones_counter=0;
    8000149c:	4501                	li	a0,0
    8000149e:	a021                	j	800014a6 <ones_counter+0x14>
    if (page_counter_val % 2 != 0)
      ones_counter++;
    page_counter_val = (page_counter_val >> 1);
    800014a0:	0017d79b          	srliw	a5,a5,0x1
  while (page_counter_val > 0){
    800014a4:	c791                	beqz	a5,800014b0 <ones_counter+0x1e>
    if (page_counter_val % 2 != 0)
    800014a6:	0017f713          	andi	a4,a5,1
    800014aa:	db7d                	beqz	a4,800014a0 <ones_counter+0xe>
      ones_counter++;
    800014ac:	2505                	addiw	a0,a0,1
    800014ae:	bfcd                	j	800014a0 <ones_counter+0xe>
  }
  return ones_counter;
}
    800014b0:	6422                	ld	s0,8(sp)
    800014b2:	0141                	addi	sp,sp,16
    800014b4:	8082                	ret

00000000800014b6 <use_NFUA>:

uint
use_NFUA(){
    800014b6:	715d                	addi	sp,sp,-80
    800014b8:	e486                	sd	ra,72(sp)
    800014ba:	e0a2                	sd	s0,64(sp)
    800014bc:	fc26                	sd	s1,56(sp)
    800014be:	f84a                	sd	s2,48(sp)
    800014c0:	f44e                	sd	s3,40(sp)
    800014c2:	f052                	sd	s4,32(sp)
    800014c4:	ec56                	sd	s5,24(sp)
    800014c6:	e85a                	sd	s6,16(sp)
    800014c8:	e45e                	sd	s7,8(sp)
    800014ca:	e062                	sd	s8,0(sp)
    800014cc:	0880                	addi	s0,sp,80
  uint min_page_index=0;
  uint min_page_counter=0xffffffff; //max int value
  struct proc *p =  myproc();
    800014ce:	00001097          	auipc	ra,0x1
    800014d2:	d36080e7          	jalr	-714(ra) # 80002204 <myproc>
    800014d6:	8aaa                	mv	s5,a0
  for (int i=0; i<MAX_PSYC_PAGES; i++){
    800014d8:	17050493          	addi	s1,a0,368
    800014dc:	4901                	li	s2,0
  uint min_page_counter=0xffffffff; //max int value
    800014de:	5bfd                	li	s7,-1
  uint min_page_index=0;
    800014e0:	4c01                	li	s8,0
    //finidng occupied page in swap file memory
    if(p->ram_pages.pages[i].is_used){
      uint64 a = PGROUNDDOWN(p->ram_pages.pages[i].virtual_address);
    800014e2:	7b7d                	lui	s6,0xfffff
  for (int i=0; i<MAX_PSYC_PAGES; i++){
    800014e4:	4a41                	li	s4,16
    800014e6:	a029                	j	800014f0 <use_NFUA+0x3a>
    800014e8:	2905                	addiw	s2,s2,1
    800014ea:	04b1                	addi	s1,s1,12
    800014ec:	03490b63          	beq	s2,s4,80001522 <use_NFUA+0x6c>
    if(p->ram_pages.pages[i].is_used){
    800014f0:	40dc                	lw	a5,4(s1)
    800014f2:	dbfd                	beqz	a5,800014e8 <use_NFUA+0x32>
      uint64 a = PGROUNDDOWN(p->ram_pages.pages[i].virtual_address);
    800014f4:	408c                	lw	a1,0(s1)
    800014f6:	0165f5b3          	and	a1,a1,s6
    800014fa:	1582                	slli	a1,a1,0x20
    800014fc:	9181                	srli	a1,a1,0x20
      pte_t *pte;
      if(((pte = walk(p->pagetable, a, 0)) != 0) && (*pte & PTE_V)){
    800014fe:	4601                	li	a2,0
    80001500:	050ab503          	ld	a0,80(s5) # ffffffff80000050 <end+0xfffffffefffd2050>
    80001504:	00000097          	auipc	ra,0x0
    80001508:	aa2080e7          	jalr	-1374(ra) # 80000fa6 <walk>
    8000150c:	dd71                	beqz	a0,800014e8 <use_NFUA+0x32>
    8000150e:	611c                	ld	a5,0(a0)
    80001510:	8b85                	andi	a5,a5,1
    80001512:	dbf9                	beqz	a5,800014e8 <use_NFUA+0x32>
        if (p->ram_pages.pages[i].page_counter<min_page_counter ){
    80001514:	449c                	lw	a5,8(s1)
    80001516:	fd77f9e3          	bgeu	a5,s7,800014e8 <use_NFUA+0x32>
          min_page_counter=p->ram_pages.pages[i].page_counter;
          min_page_index=i;
    8000151a:	00090c1b          	sext.w	s8,s2
          min_page_counter=p->ram_pages.pages[i].page_counter;
    8000151e:	8bbe                	mv	s7,a5
    80001520:	b7e1                	j	800014e8 <use_NFUA+0x32>
        }
      }
    }
  }
  return min_page_index;
}
    80001522:	8562                	mv	a0,s8
    80001524:	60a6                	ld	ra,72(sp)
    80001526:	6406                	ld	s0,64(sp)
    80001528:	74e2                	ld	s1,56(sp)
    8000152a:	7942                	ld	s2,48(sp)
    8000152c:	79a2                	ld	s3,40(sp)
    8000152e:	7a02                	ld	s4,32(sp)
    80001530:	6ae2                	ld	s5,24(sp)
    80001532:	6b42                	ld	s6,16(sp)
    80001534:	6ba2                	ld	s7,8(sp)
    80001536:	6c02                	ld	s8,0(sp)
    80001538:	6161                	addi	sp,sp,80
    8000153a:	8082                	ret

000000008000153c <use_LAPA>:

uint
use_LAPA(){
    8000153c:	7159                	addi	sp,sp,-112
    8000153e:	f486                	sd	ra,104(sp)
    80001540:	f0a2                	sd	s0,96(sp)
    80001542:	eca6                	sd	s1,88(sp)
    80001544:	e8ca                	sd	s2,80(sp)
    80001546:	e4ce                	sd	s3,72(sp)
    80001548:	e0d2                	sd	s4,64(sp)
    8000154a:	fc56                	sd	s5,56(sp)
    8000154c:	f85a                	sd	s6,48(sp)
    8000154e:	f45e                	sd	s7,40(sp)
    80001550:	f062                	sd	s8,32(sp)
    80001552:	ec66                	sd	s9,24(sp)
    80001554:	e86a                	sd	s10,16(sp)
    80001556:	e46e                	sd	s11,8(sp)
    80001558:	1880                	addi	s0,sp,112
  uint min_page_index=0;
  uint min_num_of_ones=0xffffffff; //max int value
  uint min_page_counter=0xffffffff;
  uint same_amount_of_ones_counter=0;
  struct proc *p =  myproc();
    8000155a:	00001097          	auipc	ra,0x1
    8000155e:	caa080e7          	jalr	-854(ra) # 80002204 <myproc>
    80001562:	8b2a                	mv	s6,a0
  // find page with minimal appears of '1'
  for (int i=0; i<MAX_PSYC_PAGES; i++){
    80001564:	17050993          	addi	s3,a0,368
  struct proc *p =  myproc();
    80001568:	84ce                	mv	s1,s3
  for (int i=0; i<MAX_PSYC_PAGES; i++){
    8000156a:	4901                	li	s2,0
  uint same_amount_of_ones_counter=0;
    8000156c:	4c81                	li	s9,0
  uint min_num_of_ones=0xffffffff; //max int value
    8000156e:	5c7d                	li	s8,-1
  uint min_page_index=0;
    80001570:	4d01                	li	s10,0
    uint cur_num_of_ones=0;
    //find occupied page in swap file memory
    if(p->ram_pages.pages[i].is_used){
      uint64 a = PGROUNDDOWN(p->ram_pages.pages[i].virtual_address);
    80001572:	7bfd                	lui	s7,0xfffff
      if(((pte = walk(p->pagetable, a, 0)) != 0) && (*pte & PTE_V)){
        cur_num_of_ones=ones_counter(p->ram_pages.pages[i].page_counter);
        if (cur_num_of_ones==min_num_of_ones)
          same_amount_of_ones_counter++; //CHECK IF BREAKS OUT TOTALLY
        else if(cur_num_of_ones<min_num_of_ones){
          same_amount_of_ones_counter=1;
    80001574:	4d85                	li	s11,1
  for (int i=0; i<MAX_PSYC_PAGES; i++){
    80001576:	4ac1                	li	s5,16
    80001578:	a031                	j	80001584 <use_LAPA+0x48>
          same_amount_of_ones_counter++; //CHECK IF BREAKS OUT TOTALLY
    8000157a:	2c85                	addiw	s9,s9,1
  for (int i=0; i<MAX_PSYC_PAGES; i++){
    8000157c:	2905                	addiw	s2,s2,1
    8000157e:	04b1                	addi	s1,s1,12
    80001580:	05590363          	beq	s2,s5,800015c6 <use_LAPA+0x8a>
    if(p->ram_pages.pages[i].is_used){
    80001584:	40dc                	lw	a5,4(s1)
    80001586:	dbfd                	beqz	a5,8000157c <use_LAPA+0x40>
      uint64 a = PGROUNDDOWN(p->ram_pages.pages[i].virtual_address);
    80001588:	408c                	lw	a1,0(s1)
    8000158a:	0175f5b3          	and	a1,a1,s7
    8000158e:	1582                	slli	a1,a1,0x20
    80001590:	9181                	srli	a1,a1,0x20
      if(((pte = walk(p->pagetable, a, 0)) != 0) && (*pte & PTE_V)){
    80001592:	4601                	li	a2,0
    80001594:	050b3503          	ld	a0,80(s6) # fffffffffffff050 <end+0xffffffff7ffd1050>
    80001598:	00000097          	auipc	ra,0x0
    8000159c:	a0e080e7          	jalr	-1522(ra) # 80000fa6 <walk>
    800015a0:	dd71                	beqz	a0,8000157c <use_LAPA+0x40>
    800015a2:	611c                	ld	a5,0(a0)
    800015a4:	8b85                	andi	a5,a5,1
    800015a6:	dbf9                	beqz	a5,8000157c <use_LAPA+0x40>
        cur_num_of_ones=ones_counter(p->ram_pages.pages[i].page_counter);
    800015a8:	4488                	lw	a0,8(s1)
    800015aa:	00000097          	auipc	ra,0x0
    800015ae:	ee8080e7          	jalr	-280(ra) # 80001492 <ones_counter>
    800015b2:	2501                	sext.w	a0,a0
        if (cur_num_of_ones==min_num_of_ones)
    800015b4:	fd8503e3          	beq	a0,s8,8000157a <use_LAPA+0x3e>
        else if(cur_num_of_ones<min_num_of_ones){
    800015b8:	fd8572e3          	bgeu	a0,s8,8000157c <use_LAPA+0x40>
          min_page_index=i;
    800015bc:	00090d1b          	sext.w	s10,s2
          min_num_of_ones=cur_num_of_ones;
    800015c0:	8c2a                	mv	s8,a0
          same_amount_of_ones_counter=1;
    800015c2:	8cee                	mv	s9,s11
    800015c4:	bf65                	j	8000157c <use_LAPA+0x40>
        }
      }
    }
  }
  // find page by minimal counter
  if (same_amount_of_ones_counter>1){
    800015c6:	4785                	li	a5,1
    800015c8:	0597f763          	bgeu	a5,s9,80001616 <use_LAPA+0xda>
    for (int i=0; i<MAX_PSYC_PAGES; i++){
    800015cc:	4481                	li	s1,0
  uint min_page_counter=0xffffffff;
    800015ce:	5bfd                	li	s7,-1
    //find occupied page in swap file memory
      if(p->ram_pages.pages[i].is_used){
        uint64 a = PGROUNDDOWN(p->ram_pages.pages[i].virtual_address);
    800015d0:	7afd                	lui	s5,0xfffff
    for (int i=0; i<MAX_PSYC_PAGES; i++){
    800015d2:	4a41                	li	s4,16
    800015d4:	a029                	j	800015de <use_LAPA+0xa2>
    800015d6:	2485                	addiw	s1,s1,1
    800015d8:	09b1                	addi	s3,s3,12
    800015da:	03448e63          	beq	s1,s4,80001616 <use_LAPA+0xda>
      if(p->ram_pages.pages[i].is_used){
    800015de:	0049a783          	lw	a5,4(s3) # 1004 <_entry-0x7fffeffc>
    800015e2:	dbf5                	beqz	a5,800015d6 <use_LAPA+0x9a>
        uint64 a = PGROUNDDOWN(p->ram_pages.pages[i].virtual_address);
    800015e4:	0009a583          	lw	a1,0(s3)
    800015e8:	0155f5b3          	and	a1,a1,s5
    800015ec:	1582                	slli	a1,a1,0x20
    800015ee:	9181                	srli	a1,a1,0x20
        pte_t *pte;
        if(((pte = walk(p->pagetable, a, 0)) != 0) && (*pte & PTE_V)){
    800015f0:	4601                	li	a2,0
    800015f2:	050b3503          	ld	a0,80(s6)
    800015f6:	00000097          	auipc	ra,0x0
    800015fa:	9b0080e7          	jalr	-1616(ra) # 80000fa6 <walk>
    800015fe:	dd61                	beqz	a0,800015d6 <use_LAPA+0x9a>
    80001600:	611c                	ld	a5,0(a0)
    80001602:	8b85                	andi	a5,a5,1
    80001604:	dbe9                	beqz	a5,800015d6 <use_LAPA+0x9a>
          if (p->ram_pages.pages[i].page_counter<min_page_counter ){
    80001606:	0089a783          	lw	a5,8(s3)
    8000160a:	fd77f6e3          	bgeu	a5,s7,800015d6 <use_LAPA+0x9a>
            min_page_counter=p->ram_pages.pages[i].page_counter;
            min_page_index=i;
    8000160e:	00048d1b          	sext.w	s10,s1
            min_page_counter=p->ram_pages.pages[i].page_counter;
    80001612:	8bbe                	mv	s7,a5
    80001614:	b7c9                	j	800015d6 <use_LAPA+0x9a>
        }
      }
    }
  }
  return min_page_index;
}
    80001616:	856a                	mv	a0,s10
    80001618:	70a6                	ld	ra,104(sp)
    8000161a:	7406                	ld	s0,96(sp)
    8000161c:	64e6                	ld	s1,88(sp)
    8000161e:	6946                	ld	s2,80(sp)
    80001620:	69a6                	ld	s3,72(sp)
    80001622:	6a06                	ld	s4,64(sp)
    80001624:	7ae2                	ld	s5,56(sp)
    80001626:	7b42                	ld	s6,48(sp)
    80001628:	7ba2                	ld	s7,40(sp)
    8000162a:	7c02                	ld	s8,32(sp)
    8000162c:	6ce2                	ld	s9,24(sp)
    8000162e:	6d42                	ld	s10,16(sp)
    80001630:	6da2                	ld	s11,8(sp)
    80001632:	6165                	addi	sp,sp,112
    80001634:	8082                	ret

0000000080001636 <find_occupied_page_in_ram>:
//   // }
  
// }

uint64
find_occupied_page_in_ram(void){
    80001636:	1141                	addi	sp,sp,-16
    80001638:	e406                	sd	ra,8(sp)
    8000163a:	e022                	sd	s0,0(sp)
    8000163c:	0800                	addi	s0,sp,16
  uint occupied_index=0;
  #if SELECTION == NFUA
    occupied_index=use_NFUA();
    8000163e:	00000097          	auipc	ra,0x0
    80001642:	e78080e7          	jalr	-392(ra) # 800014b6 <use_NFUA>
    80001646:	2501                	sext.w	a0,a0

  #if SELECTION == LAPA
    occupied_index=use_LAPA();
  #endif

  if( occupied_index > 15){
    80001648:	47bd                	li	a5,15
    8000164a:	00a7e863          	bltu	a5,a0,8000165a <find_occupied_page_in_ram+0x24>
    //proc has a MAX_PSYC_PAGES pages
    panic("ram memory: somthing's wrong from find occupied page");
  }
  return occupied_index;
}
    8000164e:	1502                	slli	a0,a0,0x20
    80001650:	9101                	srli	a0,a0,0x20
    80001652:	60a2                	ld	ra,8(sp)
    80001654:	6402                	ld	s0,0(sp)
    80001656:	0141                	addi	sp,sp,16
    80001658:	8082                	ret
    panic("ram memory: somthing's wrong from find occupied page");
    8000165a:	00008517          	auipc	a0,0x8
    8000165e:	b3e50513          	addi	a0,a0,-1218 # 80009198 <digits+0x158>
    80001662:	fffff097          	auipc	ra,0xfffff
    80001666:	ec8080e7          	jalr	-312(ra) # 8000052a <panic>

000000008000166a <find_free_page_in_swapped>:

uint64
find_free_page_in_swapped(void){
    8000166a:	1141                	addi	sp,sp,-16
    8000166c:	e406                	sd	ra,8(sp)
    8000166e:	e022                	sd	s0,0(sp)
    80001670:	0800                	addi	s0,sp,16
  uint sp_index=0;
  struct proc *p =  myproc();
    80001672:	00001097          	auipc	ra,0x1
    80001676:	b92080e7          	jalr	-1134(ra) # 80002204 <myproc>
  while(sp_index<16){
    8000167a:	23c50513          	addi	a0,a0,572
  uint sp_index=0;
    8000167e:	4781                	li	a5,0
  while(sp_index<16){
    80001680:	46c1                	li	a3,16
    //finidng occupied page in swap file memory
    if(!p->swapped_pages.pages[sp_index].is_used)
    80001682:	4118                	lw	a4,0(a0)
    80001684:	cb11                	beqz	a4,80001698 <find_free_page_in_swapped+0x2e>
      return sp_index;
    else
      sp_index++;
    80001686:	2785                	addiw	a5,a5,1
  while(sp_index<16){
    80001688:	0531                	addi	a0,a0,12
    8000168a:	fed79ce3          	bne	a5,a3,80001682 <find_free_page_in_swapped+0x18>
  }

  //proc has a MAX_PSYC_PAGES pages
  return -1;
    8000168e:	557d                	li	a0,-1
}
    80001690:	60a2                	ld	ra,8(sp)
    80001692:	6402                	ld	s0,0(sp)
    80001694:	0141                	addi	sp,sp,16
    80001696:	8082                	ret
      return sp_index;
    80001698:	02079513          	slli	a0,a5,0x20
    8000169c:	9101                	srli	a0,a0,0x20
    8000169e:	bfcd                	j	80001690 <find_free_page_in_swapped+0x26>

00000000800016a0 <swap>:

//moves random page from main memory to swaped file. return ot's free index in the ram array   
uint64
swap(int index){
    800016a0:	715d                	addi	sp,sp,-80
    800016a2:	e486                	sd	ra,72(sp)
    800016a4:	e0a2                	sd	s0,64(sp)
    800016a6:	fc26                	sd	s1,56(sp)
    800016a8:	f84a                	sd	s2,48(sp)
    800016aa:	f44e                	sd	s3,40(sp)
    800016ac:	f052                	sd	s4,32(sp)
    800016ae:	ec56                	sd	s5,24(sp)
    800016b0:	e85a                	sd	s6,16(sp)
    800016b2:	e45e                	sd	s7,8(sp)
    800016b4:	0880                	addi	s0,sp,80
  struct proc *p = myproc();
    800016b6:	00001097          	auipc	ra,0x1
    800016ba:	b4e080e7          	jalr	-1202(ra) # 80002204 <myproc>
    800016be:	84aa                	mv	s1,a0

  uint sp_index = find_free_page_in_swapped();
    800016c0:	00000097          	auipc	ra,0x0
    800016c4:	faa080e7          	jalr	-86(ra) # 8000166a <find_free_page_in_swapped>
    800016c8:	00050b1b          	sext.w	s6,a0
  // if(sp_index == -1){
  //   if(index == -1)
  //     panic("In swap, can't find free page in file");
  //   sp_index = index; 
  // }
  uint occupied_index = find_occupied_page_in_ram();
    800016cc:	00000097          	auipc	ra,0x0
    800016d0:	f6a080e7          	jalr	-150(ra) # 80001636 <find_occupied_page_in_ram>
    800016d4:	892a                	mv	s2,a0
    800016d6:	0005099b          	sext.w	s3,a0
  // printf("In swap, with page index from ram %d \n", occupied_index);

  // if sp_index==-1 then there are MAX_PSYC_PAGES 
  uint64 mm_va = p->ram_pages.pages[occupied_index].virtual_address;
    800016da:	02051713          	slli	a4,a0,0x20
    800016de:	9301                	srli	a4,a4,0x20
    800016e0:	00171793          	slli	a5,a4,0x1
    800016e4:	97ba                	add	a5,a5,a4
    800016e6:	078a                	slli	a5,a5,0x2
    800016e8:	97a6                	add	a5,a5,s1
    800016ea:	1707ab83          	lw	s7,368(a5) # 1170 <_entry-0x7fffee90>
    800016ee:	020b9593          	slli	a1,s7,0x20
    800016f2:	9181                	srli	a1,a1,0x20
  //uint64 mm_va_pointer = p->ram_pages.pages[occupied_index].virtual_address;
  
  pte_t *pte;
  uint64 a = PGROUNDDOWN(mm_va);
  if((pte = walk(p->pagetable, a, 0)) == 0)
    800016f4:	4601                	li	a2,0
    800016f6:	77fd                	lui	a5,0xfffff
    800016f8:	8dfd                	and	a1,a1,a5
    800016fa:	68a8                	ld	a0,80(s1)
    800016fc:	00000097          	auipc	ra,0x0
    80001700:	8aa080e7          	jalr	-1878(ra) # 80000fa6 <walk>
    80001704:	c151                	beqz	a0,80001788 <swap+0xe8>
    80001706:	8a2a                	mv	s4,a0
      return -1;
  uint64 pa = PTE2PA(*pte);
    80001708:	00053a83          	ld	s5,0(a0)
    8000170c:	00aada93          	srli	s5,s5,0xa
    80001710:	0ab2                	slli	s5,s5,0xc
  
  writeToSwapFile(p, (char*)pa, sp_index*PGSIZE, PGSIZE);
    80001712:	6685                	lui	a3,0x1
    80001714:	00cb161b          	slliw	a2,s6,0xc
    80001718:	85d6                	mv	a1,s5
    8000171a:	8526                	mv	a0,s1
    8000171c:	00003097          	auipc	ra,0x3
    80001720:	350080e7          	jalr	848(ra) # 80004a6c <writeToSwapFile>
  
  p->swapped_pages.pages[sp_index].virtual_address = mm_va;
    80001724:	020b1713          	slli	a4,s6,0x20
    80001728:	9301                	srli	a4,a4,0x20
    8000172a:	00171793          	slli	a5,a4,0x1
    8000172e:	00e786b3          	add	a3,a5,a4
    80001732:	068a                	slli	a3,a3,0x2
    80001734:	96a6                	add	a3,a3,s1
    80001736:	2376ac23          	sw	s7,568(a3) # 1238 <_entry-0x7fffedc8>
  p->swapped_pages.pages[sp_index].is_used = 1; 
    8000173a:	4705                	li	a4,1
    8000173c:	22e6ae23          	sw	a4,572(a3)
  p->ram_pages.pages[occupied_index].is_used = 0; //this index is no more occupied
    80001740:	1982                	slli	s3,s3,0x20
    80001742:	0209d993          	srli	s3,s3,0x20
    80001746:	00199513          	slli	a0,s3,0x1
    8000174a:	954e                	add	a0,a0,s3
    8000174c:	050a                	slli	a0,a0,0x2
    8000174e:	94aa                	add	s1,s1,a0
    80001750:	1604aa23          	sw	zero,372(s1)
  

  kfree((void*)pa); //Free the page of physical memory
    80001754:	8556                	mv	a0,s5
    80001756:	fffff097          	auipc	ra,0xfffff
    8000175a:	280080e7          	jalr	640(ra) # 800009d6 <kfree>

  // update pte flags
  *pte |= PTE_PG; //page is on disc
  // printf("In swap, turning off valid for %d\n", a); 
  *pte &= ~PTE_V; //page is not valid
    8000175e:	000a3783          	ld	a5,0(s4)
    80001762:	9bf9                	andi	a5,a5,-2
    80001764:	2007e793          	ori	a5,a5,512
    80001768:	00fa3023          	sd	a5,0(s4)
  if (*pte & PTE_V){
    printf("Hi there\n"); 
  }

  
  return occupied_index; //this physical addres is available now
    8000176c:	02091513          	slli	a0,s2,0x20
    80001770:	9101                	srli	a0,a0,0x20
}
    80001772:	60a6                	ld	ra,72(sp)
    80001774:	6406                	ld	s0,64(sp)
    80001776:	74e2                	ld	s1,56(sp)
    80001778:	7942                	ld	s2,48(sp)
    8000177a:	79a2                	ld	s3,40(sp)
    8000177c:	7a02                	ld	s4,32(sp)
    8000177e:	6ae2                	ld	s5,24(sp)
    80001780:	6b42                	ld	s6,16(sp)
    80001782:	6ba2                	ld	s7,8(sp)
    80001784:	6161                	addi	sp,sp,80
    80001786:	8082                	ret
      return -1;
    80001788:	557d                	li	a0,-1
    8000178a:	b7e5                	j	80001772 <swap+0xd2>

000000008000178c <uvmdealloc>:
// newsz.  oldsz and newsz need not be page-aligned, nor does newsz
// need to be less than oldsz.  oldsz can be larger than the actual
// process size.  Returns the new process size.
uint64
uvmdealloc(pagetable_t pagetable, uint64 oldsz, uint64 newsz)
{
    8000178c:	7179                	addi	sp,sp,-48
    8000178e:	f406                	sd	ra,40(sp)
    80001790:	f022                	sd	s0,32(sp)
    80001792:	ec26                	sd	s1,24(sp)
    80001794:	e84a                	sd	s2,16(sp)
    80001796:	e44e                	sd	s3,8(sp)
    80001798:	1800                	addi	s0,sp,48
    8000179a:	89aa                	mv	s3,a0
    8000179c:	84ae                	mv	s1,a1
    8000179e:	8932                	mv	s2,a2
  printf("******In uvmdealloc****** \n"); 
    800017a0:	00008517          	auipc	a0,0x8
    800017a4:	a3050513          	addi	a0,a0,-1488 # 800091d0 <digits+0x190>
    800017a8:	fffff097          	auipc	ra,0xfffff
    800017ac:	dcc080e7          	jalr	-564(ra) # 80000574 <printf>
  if(newsz >= oldsz)
    800017b0:	02997f63          	bgeu	s2,s1,800017ee <uvmdealloc+0x62>
    return oldsz;

  if(PGROUNDUP(newsz) < PGROUNDUP(oldsz)){
    800017b4:	6785                	lui	a5,0x1
    800017b6:	17fd                	addi	a5,a5,-1
    800017b8:	00f905b3          	add	a1,s2,a5
    800017bc:	767d                	lui	a2,0xfffff
    800017be:	8df1                	and	a1,a1,a2
    800017c0:	94be                	add	s1,s1,a5
    800017c2:	8cf1                	and	s1,s1,a2
    800017c4:	0095ea63          	bltu	a1,s1,800017d8 <uvmdealloc+0x4c>
    int npages = (PGROUNDUP(oldsz) - PGROUNDUP(newsz)) / PGSIZE;
    uvmunmap(pagetable, PGROUNDUP(newsz), npages, 1);
  }

  return newsz;
}
    800017c8:	854a                	mv	a0,s2
    800017ca:	70a2                	ld	ra,40(sp)
    800017cc:	7402                	ld	s0,32(sp)
    800017ce:	64e2                	ld	s1,24(sp)
    800017d0:	6942                	ld	s2,16(sp)
    800017d2:	69a2                	ld	s3,8(sp)
    800017d4:	6145                	addi	sp,sp,48
    800017d6:	8082                	ret
    int npages = (PGROUNDUP(oldsz) - PGROUNDUP(newsz)) / PGSIZE;
    800017d8:	8c8d                	sub	s1,s1,a1
    800017da:	80b1                	srli	s1,s1,0xc
    uvmunmap(pagetable, PGROUNDUP(newsz), npages, 1);
    800017dc:	4685                	li	a3,1
    800017de:	0004861b          	sext.w	a2,s1
    800017e2:	854e                	mv	a0,s3
    800017e4:	00000097          	auipc	ra,0x0
    800017e8:	aa4080e7          	jalr	-1372(ra) # 80001288 <uvmunmap>
    800017ec:	bff1                	j	800017c8 <uvmdealloc+0x3c>
    return oldsz;
    800017ee:	8926                	mv	s2,s1
    800017f0:	bfe1                	j	800017c8 <uvmdealloc+0x3c>

00000000800017f2 <init_free_ram_page>:
init_free_ram_page(pagetable_t pagetable, uint64 va, uint64 pa , int index){
    800017f2:	7139                	addi	sp,sp,-64
    800017f4:	fc06                	sd	ra,56(sp)
    800017f6:	f822                	sd	s0,48(sp)
    800017f8:	f426                	sd	s1,40(sp)
    800017fa:	f04a                	sd	s2,32(sp)
    800017fc:	ec4e                	sd	s3,24(sp)
    800017fe:	e852                	sd	s4,16(sp)
    80001800:	e456                	sd	s5,8(sp)
    80001802:	0080                	addi	s0,sp,64
    80001804:	8aaa                	mv	s5,a0
    80001806:	8a2e                	mv	s4,a1
    80001808:	89b2                	mv	s3,a2
    8000180a:	8936                	mv	s2,a3
  struct proc *p = myproc();
    8000180c:	00001097          	auipc	ra,0x1
    80001810:	9f8080e7          	jalr	-1544(ra) # 80002204 <myproc>
    80001814:	84aa                	mv	s1,a0
  if(mappages(pagetable, a, PGSIZE, pa, PTE_W|PTE_X|PTE_R|PTE_U) < 0){
    80001816:	4779                	li	a4,30
    80001818:	86ce                	mv	a3,s3
    8000181a:	6605                	lui	a2,0x1
    8000181c:	75fd                	lui	a1,0xfffff
    8000181e:	00ba75b3          	and	a1,s4,a1
    80001822:	8556                	mv	a0,s5
    80001824:	00000097          	auipc	ra,0x0
    80001828:	86a080e7          	jalr	-1942(ra) # 8000108e <mappages>
    8000182c:	04054063          	bltz	a0,8000186c <init_free_ram_page+0x7a>
  p->ram_pages.pages[index].virtual_address = va; //TODO or va ? 
    80001830:	00191993          	slli	s3,s2,0x1
    80001834:	012987b3          	add	a5,s3,s2
    80001838:	078a                	slli	a5,a5,0x2
    8000183a:	97a6                	add	a5,a5,s1
    8000183c:	1747a823          	sw	s4,368(a5) # 1170 <_entry-0x7fffee90>
  p->ram_pages.pages[index].is_used = 1;
    80001840:	4705                	li	a4,1
    80001842:	16e7aa23          	sw	a4,372(a5)
  p->ram_pages.pages[index].page_counter=reset_counter();
    80001846:	00001097          	auipc	ra,0x1
    8000184a:	a82080e7          	jalr	-1406(ra) # 800022c8 <reset_counter>
    8000184e:	99ca                	add	s3,s3,s2
    80001850:	098a                	slli	s3,s3,0x2
    80001852:	99a6                	add	s3,s3,s1
    80001854:	16a9ac23          	sw	a0,376(s3)
  return 1; //success
    80001858:	4505                	li	a0,1
}
    8000185a:	70e2                	ld	ra,56(sp)
    8000185c:	7442                	ld	s0,48(sp)
    8000185e:	74a2                	ld	s1,40(sp)
    80001860:	7902                	ld	s2,32(sp)
    80001862:	69e2                	ld	s3,24(sp)
    80001864:	6a42                	ld	s4,16(sp)
    80001866:	6aa2                	ld	s5,8(sp)
    80001868:	6121                	addi	sp,sp,64
    8000186a:	8082                	ret
    uvmdealloc(pagetable, PGSIZE, PGSIZE);
    8000186c:	6605                	lui	a2,0x1
    8000186e:	6585                	lui	a1,0x1
    80001870:	8556                	mv	a0,s5
    80001872:	00000097          	auipc	ra,0x0
    80001876:	f1a080e7          	jalr	-230(ra) # 8000178c <uvmdealloc>
    kfree((void*)pa); //Free the page of physical memory
    8000187a:	854e                	mv	a0,s3
    8000187c:	fffff097          	auipc	ra,0xfffff
    80001880:	15a080e7          	jalr	346(ra) # 800009d6 <kfree>
    return 0; //init page failed
    80001884:	4501                	li	a0,0
    80001886:	bfd1                	j	8000185a <init_free_ram_page+0x68>

0000000080001888 <find_and_init_page>:
find_and_init_page(uint64 pa, uint64 va){
    80001888:	1101                	addi	sp,sp,-32
    8000188a:	ec06                	sd	ra,24(sp)
    8000188c:	e822                	sd	s0,16(sp)
    8000188e:	e426                	sd	s1,8(sp)
    80001890:	e04a                	sd	s2,0(sp)
    80001892:	1000                	addi	s0,sp,32
    80001894:	892a                	mv	s2,a0
    80001896:	84ae                	mv	s1,a1
  struct proc *p =  myproc();
    80001898:	00001097          	auipc	ra,0x1
    8000189c:	96c080e7          	jalr	-1684(ra) # 80002204 <myproc>
  while(index<MAX_PSYC_PAGES){
    800018a0:	17450793          	addi	a5,a0,372
  int index =0;
    800018a4:	4681                	li	a3,0
  while(index<MAX_PSYC_PAGES){
    800018a6:	4841                	li	a6,16
    if(!p->ram_pages.pages[index].is_used){
    800018a8:	4398                	lw	a4,0(a5)
    800018aa:	cf01                	beqz	a4,800018c2 <find_and_init_page+0x3a>
    index++;
    800018ac:	2685                	addiw	a3,a3,1
  while(index<MAX_PSYC_PAGES){
    800018ae:	07b1                	addi	a5,a5,12
    800018b0:	ff069ce3          	bne	a3,a6,800018a8 <find_and_init_page+0x20>
  return -1;
    800018b4:	557d                	li	a0,-1
}
    800018b6:	60e2                	ld	ra,24(sp)
    800018b8:	6442                	ld	s0,16(sp)
    800018ba:	64a2                	ld	s1,8(sp)
    800018bc:	6902                	ld	s2,0(sp)
    800018be:	6105                	addi	sp,sp,32
    800018c0:	8082                	ret
      return init_free_ram_page(p->pagetable, va, pa, index);
    800018c2:	864a                	mv	a2,s2
    800018c4:	85a6                	mv	a1,s1
    800018c6:	6928                	ld	a0,80(a0)
    800018c8:	00000097          	auipc	ra,0x0
    800018cc:	f2a080e7          	jalr	-214(ra) # 800017f2 <init_free_ram_page>
    800018d0:	b7dd                	j	800018b6 <find_and_init_page+0x2e>

00000000800018d2 <handle_page_fault>:
handle_page_fault(uint64 va){
    800018d2:	7119                	addi	sp,sp,-128
    800018d4:	fc86                	sd	ra,120(sp)
    800018d6:	f8a2                	sd	s0,112(sp)
    800018d8:	f4a6                	sd	s1,104(sp)
    800018da:	f0ca                	sd	s2,96(sp)
    800018dc:	ecce                	sd	s3,88(sp)
    800018de:	e8d2                	sd	s4,80(sp)
    800018e0:	e4d6                	sd	s5,72(sp)
    800018e2:	e0da                	sd	s6,64(sp)
    800018e4:	fc5e                	sd	s7,56(sp)
    800018e6:	f862                	sd	s8,48(sp)
    800018e8:	f466                	sd	s9,40(sp)
    800018ea:	f06a                	sd	s10,32(sp)
    800018ec:	ec6e                	sd	s11,24(sp)
    800018ee:	0100                	addi	s0,sp,128
    800018f0:	8aaa                	mv	s5,a0
  struct proc *p = myproc();
    800018f2:	00001097          	auipc	ra,0x1
    800018f6:	912080e7          	jalr	-1774(ra) # 80002204 <myproc>
    800018fa:	8d2a                	mv	s10,a0
  uint64 align_va = PGROUNDDOWN(va);
    800018fc:	79fd                	lui	s3,0xfffff
    800018fe:	013af9b3          	and	s3,s5,s3
  pte_t *pte = walk(p->pagetable, align_va, 0);
    80001902:	4601                	li	a2,0
    80001904:	85ce                	mv	a1,s3
    80001906:	6928                	ld	a0,80(a0)
    80001908:	fffff097          	auipc	ra,0xfffff
    8000190c:	69e080e7          	jalr	1694(ra) # 80000fa6 <walk>
    80001910:	8daa                	mv	s11,a0
  void * buffer =  kalloc(); 
    80001912:	fffff097          	auipc	ra,0xfffff
    80001916:	1c0080e7          	jalr	448(ra) # 80000ad2 <kalloc>
    8000191a:	f8a43423          	sd	a0,-120(s0)
  if(pte == 0){
    8000191e:	040d8a63          	beqz	s11,80001972 <handle_page_fault+0xa0>
  else if(!(*pte & PTE_PG)){ //enter when flag PTE_PG is off  
    80001922:	000db783          	ld	a5,0(s11)
    80001926:	2007f793          	andi	a5,a5,512
    8000192a:	cfa1                	beqz	a5,80001982 <handle_page_fault+0xb0>
  printf("In handle_page_fault, desired va page is: %d \n", va); 
    8000192c:	85d6                	mv	a1,s5
    8000192e:	00008517          	auipc	a0,0x8
    80001932:	92a50513          	addi	a0,a0,-1750 # 80009258 <digits+0x218>
    80001936:	fffff097          	auipc	ra,0xfffff
    8000193a:	c3e080e7          	jalr	-962(ra) # 80000574 <printf>
  printf("In handle_page_fault, desired align va page  is: %d \n", align_va); 
    8000193e:	85ce                	mv	a1,s3
    80001940:	00008517          	auipc	a0,0x8
    80001944:	94850513          	addi	a0,a0,-1720 # 80009288 <digits+0x248>
    80001948:	fffff097          	auipc	ra,0xfffff
    8000194c:	c2c080e7          	jalr	-980(ra) # 80000574 <printf>
  while(i<16){
    80001950:	170d0493          	addi	s1,s10,368
  int i = 0; 
    80001954:	4901                	li	s2,0
    printf("swaped page num %d va is %d \n",i, p->swapped_pages.pages[i].virtual_address);
    80001956:	00008c17          	auipc	s8,0x8
    8000195a:	96ac0c13          	addi	s8,s8,-1686 # 800092c0 <digits+0x280>
    printf("swaped page num %d is used %d \n",i, p->swapped_pages.pages[i].is_used); 
    8000195e:	00008b97          	auipc	s7,0x8
    80001962:	982b8b93          	addi	s7,s7,-1662 # 800092e0 <digits+0x2a0>
    printf("ram page num %d va is %d \n",i, p->ram_pages.pages[i].virtual_address); 
    80001966:	00008b17          	auipc	s6,0x8
    8000196a:	99ab0b13          	addi	s6,s6,-1638 # 80009300 <digits+0x2c0>
  while(i<16){
    8000196e:	4cc1                	li	s9,16
    80001970:	a805                	j	800019a0 <handle_page_fault+0xce>
    panic("in handle_page_fault, page table don't exists \n");
    80001972:	00008517          	auipc	a0,0x8
    80001976:	87e50513          	addi	a0,a0,-1922 # 800091f0 <digits+0x1b0>
    8000197a:	fffff097          	auipc	ra,0xfffff
    8000197e:	bb0080e7          	jalr	-1104(ra) # 8000052a <panic>
    panic("in handle_page_fault, page is not in the swap file");
    80001982:	00008517          	auipc	a0,0x8
    80001986:	89e50513          	addi	a0,a0,-1890 # 80009220 <digits+0x1e0>
    8000198a:	fffff097          	auipc	ra,0xfffff
    8000198e:	ba0080e7          	jalr	-1120(ra) # 8000052a <panic>
      if(p->swapped_pages.pages[i].is_used){
    80001992:	0cca2783          	lw	a5,204(s4)
    80001996:	e7a1                	bnez	a5,800019de <handle_page_fault+0x10c>
    i++; 
    80001998:	2905                	addiw	s2,s2,1
  while(i<16){
    8000199a:	04b1                	addi	s1,s1,12
    8000199c:	0f990263          	beq	s2,s9,80001a80 <handle_page_fault+0x1ae>
    printf("swaped page num %d va is %d \n",i, p->swapped_pages.pages[i].virtual_address);
    800019a0:	8a26                	mv	s4,s1
    800019a2:	0c84a603          	lw	a2,200(s1)
    800019a6:	85ca                	mv	a1,s2
    800019a8:	8562                	mv	a0,s8
    800019aa:	fffff097          	auipc	ra,0xfffff
    800019ae:	bca080e7          	jalr	-1078(ra) # 80000574 <printf>
    printf("swaped page num %d is used %d \n",i, p->swapped_pages.pages[i].is_used); 
    800019b2:	0cc4a603          	lw	a2,204(s1)
    800019b6:	85ca                	mv	a1,s2
    800019b8:	855e                	mv	a0,s7
    800019ba:	fffff097          	auipc	ra,0xfffff
    800019be:	bba080e7          	jalr	-1094(ra) # 80000574 <printf>
    printf("ram page num %d va is %d \n",i, p->ram_pages.pages[i].virtual_address); 
    800019c2:	4090                	lw	a2,0(s1)
    800019c4:	85ca                	mv	a1,s2
    800019c6:	855a                	mv	a0,s6
    800019c8:	fffff097          	auipc	ra,0xfffff
    800019cc:	bac080e7          	jalr	-1108(ra) # 80000574 <printf>
    uint64 curr_va = (uint64)p->swapped_pages.pages[i].virtual_address;
    800019d0:	0c84e783          	lwu	a5,200(s1)
    if(curr_va == align_va || curr_va == va){
    800019d4:	faf98fe3          	beq	s3,a5,80001992 <handle_page_fault+0xc0>
    800019d8:	fcfa90e3          	bne	s5,a5,80001998 <handle_page_fault+0xc6>
    800019dc:	bf5d                	j	80001992 <handle_page_fault+0xc0>
  if (i>15){
    800019de:	47bd                	li	a5,15
    800019e0:	0b27c063          	blt	a5,s2,80001a80 <handle_page_fault+0x1ae>
  p->swapped_pages.pages[i].virtual_address = 0;
    800019e4:	00191793          	slli	a5,s2,0x1
    800019e8:	97ca                	add	a5,a5,s2
    800019ea:	078a                	slli	a5,a5,0x2
    800019ec:	97ea                	add	a5,a5,s10
    800019ee:	2207ac23          	sw	zero,568(a5)
  p->swapped_pages.pages[i].is_used = 0; 
    800019f2:	2207ae23          	sw	zero,572(a5)
  free_pa_index = find_free_page_in_ram(); 
    800019f6:	00000097          	auipc	ra,0x0
    800019fa:	a6e080e7          	jalr	-1426(ra) # 80001464 <find_free_page_in_ram>
    800019fe:	84aa                	mv	s1,a0
  if (free_pa_index == -1){
    80001a00:	57fd                	li	a5,-1
    80001a02:	08f50763          	beq	a0,a5,80001a90 <handle_page_fault+0x1be>
  memset(buffer,0,PGSIZE);
    80001a06:	6605                	lui	a2,0x1
    80001a08:	4581                	li	a1,0
    80001a0a:	f8843a03          	ld	s4,-120(s0)
    80001a0e:	8552                	mv	a0,s4
    80001a10:	fffff097          	auipc	ra,0xfffff
    80001a14:	2ae080e7          	jalr	686(ra) # 80000cbe <memset>
  readFromSwapFile(p, buffer, i*PGSIZE, PGSIZE); //reading page to pa 
    80001a18:	6685                	lui	a3,0x1
    80001a1a:	00c9161b          	slliw	a2,s2,0xc
    80001a1e:	85d2                	mv	a1,s4
    80001a20:	856a                	mv	a0,s10
    80001a22:	00003097          	auipc	ra,0x3
    80001a26:	06e080e7          	jalr	110(ra) # 80004a90 <readFromSwapFile>
   *pte &= ~PTE_PG;
    80001a2a:	000db783          	ld	a5,0(s11)
    80001a2e:	dff7f713          	andi	a4,a5,-513
    80001a32:	00edb023          	sd	a4,0(s11)
   if(*pte & PTE_V){
    80001a36:	8b85                	andi	a5,a5,1
    80001a38:	ebc1                	bnez	a5,80001ac8 <handle_page_fault+0x1f6>
  printf("page %d is not valid!!! \n",align_va); 
    80001a3a:	85ce                	mv	a1,s3
    80001a3c:	00008517          	auipc	a0,0x8
    80001a40:	98450513          	addi	a0,a0,-1660 # 800093c0 <digits+0x380>
    80001a44:	fffff097          	auipc	ra,0xfffff
    80001a48:	b30080e7          	jalr	-1232(ra) # 80000574 <printf>
  if(!init_free_ram_page(p->pagetable, va, (uint64)buffer, free_pa_index)){
    80001a4c:	86a6                	mv	a3,s1
    80001a4e:	f8843603          	ld	a2,-120(s0)
    80001a52:	85d6                	mv	a1,s5
    80001a54:	050d3503          	ld	a0,80(s10)
    80001a58:	00000097          	auipc	ra,0x0
    80001a5c:	d9a080e7          	jalr	-614(ra) # 800017f2 <init_free_ram_page>
    80001a60:	cd35                	beqz	a0,80001adc <handle_page_fault+0x20a>
}
    80001a62:	70e6                	ld	ra,120(sp)
    80001a64:	7446                	ld	s0,112(sp)
    80001a66:	74a6                	ld	s1,104(sp)
    80001a68:	7906                	ld	s2,96(sp)
    80001a6a:	69e6                	ld	s3,88(sp)
    80001a6c:	6a46                	ld	s4,80(sp)
    80001a6e:	6aa6                	ld	s5,72(sp)
    80001a70:	6b06                	ld	s6,64(sp)
    80001a72:	7be2                	ld	s7,56(sp)
    80001a74:	7c42                	ld	s8,48(sp)
    80001a76:	7ca2                	ld	s9,40(sp)
    80001a78:	7d02                	ld	s10,32(sp)
    80001a7a:	6de2                	ld	s11,24(sp)
    80001a7c:	6109                	addi	sp,sp,128
    80001a7e:	8082                	ret
    panic("in handle_page_fault, page not exists \n"); 
    80001a80:	00008517          	auipc	a0,0x8
    80001a84:	8a050513          	addi	a0,a0,-1888 # 80009320 <digits+0x2e0>
    80001a88:	fffff097          	auipc	ra,0xfffff
    80001a8c:	aa2080e7          	jalr	-1374(ra) # 8000052a <panic>
    free_pa_index = swap(i); 
    80001a90:	854a                	mv	a0,s2
    80001a92:	00000097          	auipc	ra,0x0
    80001a96:	c0e080e7          	jalr	-1010(ra) # 800016a0 <swap>
    80001a9a:	0005049b          	sext.w	s1,a0
    printf("i value : %d     free_pa_index : %d \n",i,free_pa_index);
    80001a9e:	8626                	mv	a2,s1
    80001aa0:	85ca                	mv	a1,s2
    80001aa2:	00008517          	auipc	a0,0x8
    80001aa6:	8a650513          	addi	a0,a0,-1882 # 80009348 <digits+0x308>
    80001aaa:	fffff097          	auipc	ra,0xfffff
    80001aae:	aca080e7          	jalr	-1334(ra) # 80000574 <printf>
    if(free_pa_index == -1){
    80001ab2:	57fd                	li	a5,-1
    80001ab4:	f4f499e3          	bne	s1,a5,80001a06 <handle_page_fault+0x134>
      panic("in handle_page_fault, no unused page in swap file \n");
    80001ab8:	00008517          	auipc	a0,0x8
    80001abc:	8b850513          	addi	a0,a0,-1864 # 80009370 <digits+0x330>
    80001ac0:	fffff097          	auipc	ra,0xfffff
    80001ac4:	a6a080e7          	jalr	-1430(ra) # 8000052a <panic>
     printf("page %d is valid!!! \n",align_va); 
    80001ac8:	85ce                	mv	a1,s3
    80001aca:	00008517          	auipc	a0,0x8
    80001ace:	8de50513          	addi	a0,a0,-1826 # 800093a8 <digits+0x368>
    80001ad2:	fffff097          	auipc	ra,0xfffff
    80001ad6:	aa2080e7          	jalr	-1374(ra) # 80000574 <printf>
    80001ada:	b785                	j	80001a3a <handle_page_fault+0x168>
    panic("in Handle_PGFLT, unexpectedly failed to find unused entry in main_mem array of the process");
    80001adc:	00008517          	auipc	a0,0x8
    80001ae0:	90450513          	addi	a0,a0,-1788 # 800093e0 <digits+0x3a0>
    80001ae4:	fffff097          	auipc	ra,0xfffff
    80001ae8:	a46080e7          	jalr	-1466(ra) # 8000052a <panic>

0000000080001aec <uvmalloc>:
{
    80001aec:	7159                	addi	sp,sp,-112
    80001aee:	f486                	sd	ra,104(sp)
    80001af0:	f0a2                	sd	s0,96(sp)
    80001af2:	eca6                	sd	s1,88(sp)
    80001af4:	e8ca                	sd	s2,80(sp)
    80001af6:	e4ce                	sd	s3,72(sp)
    80001af8:	e0d2                	sd	s4,64(sp)
    80001afa:	fc56                	sd	s5,56(sp)
    80001afc:	f85a                	sd	s6,48(sp)
    80001afe:	f45e                	sd	s7,40(sp)
    80001b00:	f062                	sd	s8,32(sp)
    80001b02:	ec66                	sd	s9,24(sp)
    80001b04:	e86a                	sd	s10,16(sp)
    80001b06:	e46e                	sd	s11,8(sp)
    80001b08:	1880                	addi	s0,sp,112
    80001b0a:	8a2a                	mv	s4,a0
    80001b0c:	8aae                	mv	s5,a1
    80001b0e:	8bb2                	mv	s7,a2
  printf("In uvmalloc with pid: %d \n", myproc()->pid); 
    80001b10:	00000097          	auipc	ra,0x0
    80001b14:	6f4080e7          	jalr	1780(ra) # 80002204 <myproc>
    80001b18:	590c                	lw	a1,48(a0)
    80001b1a:	00008517          	auipc	a0,0x8
    80001b1e:	92650513          	addi	a0,a0,-1754 # 80009440 <digits+0x400>
    80001b22:	fffff097          	auipc	ra,0xfffff
    80001b26:	a52080e7          	jalr	-1454(ra) # 80000574 <printf>
  printf("oldsize is : %d \n", oldsz); 
    80001b2a:	85d6                	mv	a1,s5
    80001b2c:	00008517          	auipc	a0,0x8
    80001b30:	93450513          	addi	a0,a0,-1740 # 80009460 <digits+0x420>
    80001b34:	fffff097          	auipc	ra,0xfffff
    80001b38:	a40080e7          	jalr	-1472(ra) # 80000574 <printf>
  printf("newsize is : %d \n", newsz); 
    80001b3c:	85de                	mv	a1,s7
    80001b3e:	00008517          	auipc	a0,0x8
    80001b42:	93a50513          	addi	a0,a0,-1734 # 80009478 <digits+0x438>
    80001b46:	fffff097          	auipc	ra,0xfffff
    80001b4a:	a2e080e7          	jalr	-1490(ra) # 80000574 <printf>
  if(newsz >= KERNBASE)
    80001b4e:	800007b7          	lui	a5,0x80000
    80001b52:	fff7c793          	not	a5,a5
    80001b56:	1977e863          	bltu	a5,s7,80001ce6 <uvmalloc+0x1fa>
  if(newsz < oldsz)
    80001b5a:	1b5be663          	bltu	s7,s5,80001d06 <uvmalloc+0x21a>
  a = PGROUNDUP(oldsz);
    80001b5e:	6905                	lui	s2,0x1
    80001b60:	197d                	addi	s2,s2,-1
    80001b62:	9956                	add	s2,s2,s5
    80001b64:	77fd                	lui	a5,0xfffff
    80001b66:	00f97933          	and	s2,s2,a5
  for(int l=0; l<16; l++){
    80001b6a:	4481                	li	s1,0
  int curr_pages =0; 
    80001b6c:	4981                	li	s3,0
  for(int l=0; l<16; l++){
    80001b6e:	4b41                	li	s6,16
    80001b70:	a021                	j	80001b78 <uvmalloc+0x8c>
    80001b72:	2485                	addiw	s1,s1,1
    80001b74:	03648d63          	beq	s1,s6,80001bae <uvmalloc+0xc2>
    if(myproc()->ram_pages.pages[l].is_used)
    80001b78:	00000097          	auipc	ra,0x0
    80001b7c:	68c080e7          	jalr	1676(ra) # 80002204 <myproc>
    80001b80:	00149793          	slli	a5,s1,0x1
    80001b84:	97a6                	add	a5,a5,s1
    80001b86:	078a                	slli	a5,a5,0x2
    80001b88:	97aa                	add	a5,a5,a0
    80001b8a:	1747a783          	lw	a5,372(a5) # fffffffffffff174 <end+0xffffffff7ffd1174>
    80001b8e:	c391                	beqz	a5,80001b92 <uvmalloc+0xa6>
      curr_pages++; 
    80001b90:	2985                	addiw	s3,s3,1
    if(myproc()->swapped_pages.pages[l].is_used)
    80001b92:	00000097          	auipc	ra,0x0
    80001b96:	672080e7          	jalr	1650(ra) # 80002204 <myproc>
    80001b9a:	00149793          	slli	a5,s1,0x1
    80001b9e:	97a6                	add	a5,a5,s1
    80001ba0:	078a                	slli	a5,a5,0x2
    80001ba2:	97aa                	add	a5,a5,a0
    80001ba4:	23c7a783          	lw	a5,572(a5)
    80001ba8:	d7e9                	beqz	a5,80001b72 <uvmalloc+0x86>
      curr_pages++; 
    80001baa:	2985                	addiw	s3,s3,1
    80001bac:	b7d9                	j	80001b72 <uvmalloc+0x86>
  if (curr_pages == 32){
    80001bae:	02000793          	li	a5,32
    80001bb2:	02f98963          	beq	s3,a5,80001be4 <uvmalloc+0xf8>
  for(; a < newsz; a += PGSIZE){
    80001bb6:	11797d63          	bgeu	s2,s7,80001cd0 <uvmalloc+0x1e4>
    80001bba:	fffb8b13          	addi	s6,s7,-1
    80001bbe:	412b0b33          	sub	s6,s6,s2
    80001bc2:	77fd                	lui	a5,0xfffff
    80001bc4:	00fb7b33          	and	s6,s6,a5
    80001bc8:	6785                	lui	a5,0x1
    80001bca:	97ca                	add	a5,a5,s2
    80001bcc:	9b3e                	add	s6,s6,a5
    if(myproc()->pid > 2){
    80001bce:	4c09                	li	s8,2
      if(ram_page_index ==  -1){ //no free ram page
    80001bd0:	5cfd                	li	s9,-1
        printf("In uvmalloc, no free page in ram\n");
    80001bd2:	00008d97          	auipc	s11,0x8
    80001bd6:	8e6d8d93          	addi	s11,s11,-1818 # 800094b8 <digits+0x478>
        printf("In uvmalloc, after swap free ram page index is : %d \n", ram_page_index); 
    80001bda:	00008d17          	auipc	s10,0x8
    80001bde:	906d0d13          	addi	s10,s10,-1786 # 800094e0 <digits+0x4a0>
    80001be2:	a835                	j	80001c1e <uvmalloc+0x132>
    panic("In uvmalloc, not enough space for pages"); 
    80001be4:	00008517          	auipc	a0,0x8
    80001be8:	8ac50513          	addi	a0,a0,-1876 # 80009490 <digits+0x450>
    80001bec:	fffff097          	auipc	ra,0xfffff
    80001bf0:	93e080e7          	jalr	-1730(ra) # 8000052a <panic>
      uvmdealloc(pagetable, a, oldsz);
    80001bf4:	8656                	mv	a2,s5
    80001bf6:	85ca                	mv	a1,s2
    80001bf8:	8552                	mv	a0,s4
    80001bfa:	00000097          	auipc	ra,0x0
    80001bfe:	b92080e7          	jalr	-1134(ra) # 8000178c <uvmdealloc>
      return 0;
    80001c02:	4501                	li	a0,0
    80001c04:	a0d5                	j	80001ce8 <uvmalloc+0x1fc>
      init_free_ram_page(pagetable, a, (uint64)mem, ram_page_index); 
    80001c06:	86ce                	mv	a3,s3
    80001c08:	8626                	mv	a2,s1
    80001c0a:	85ca                	mv	a1,s2
    80001c0c:	8552                	mv	a0,s4
    80001c0e:	00000097          	auipc	ra,0x0
    80001c12:	be4080e7          	jalr	-1052(ra) # 800017f2 <init_free_ram_page>
  for(; a < newsz; a += PGSIZE){
    80001c16:	6785                	lui	a5,0x1
    80001c18:	993e                	add	s2,s2,a5
    80001c1a:	0b690b63          	beq	s2,s6,80001cd0 <uvmalloc+0x1e4>
    mem = kalloc();
    80001c1e:	fffff097          	auipc	ra,0xfffff
    80001c22:	eb4080e7          	jalr	-332(ra) # 80000ad2 <kalloc>
    80001c26:	84aa                	mv	s1,a0
    if(mem == 0){
    80001c28:	d571                	beqz	a0,80001bf4 <uvmalloc+0x108>
    memset(mem, 0, PGSIZE);
    80001c2a:	6605                	lui	a2,0x1
    80001c2c:	4581                	li	a1,0
    80001c2e:	fffff097          	auipc	ra,0xfffff
    80001c32:	090080e7          	jalr	144(ra) # 80000cbe <memset>
    if(myproc()->pid > 2){
    80001c36:	00000097          	auipc	ra,0x0
    80001c3a:	5ce080e7          	jalr	1486(ra) # 80002204 <myproc>
    80001c3e:	591c                	lw	a5,48(a0)
    80001c40:	06fc5063          	bge	s8,a5,80001ca0 <uvmalloc+0x1b4>
      ram_page_index = find_free_page_in_ram(); 
    80001c44:	00000097          	auipc	ra,0x0
    80001c48:	820080e7          	jalr	-2016(ra) # 80001464 <find_free_page_in_ram>
    80001c4c:	89aa                	mv	s3,a0
      if(ram_page_index ==  -1){ //no free ram page
    80001c4e:	fb951ce3          	bne	a0,s9,80001c06 <uvmalloc+0x11a>
        printf("In uvmalloc, no free page in ram\n");
    80001c52:	856e                	mv	a0,s11
    80001c54:	fffff097          	auipc	ra,0xfffff
    80001c58:	920080e7          	jalr	-1760(ra) # 80000574 <printf>
        ram_page_index = swap(-1);
    80001c5c:	8566                	mv	a0,s9
    80001c5e:	00000097          	auipc	ra,0x0
    80001c62:	a42080e7          	jalr	-1470(ra) # 800016a0 <swap>
    80001c66:	0005099b          	sext.w	s3,a0
        printf("In uvmalloc, after swap free ram page index is : %d \n", ram_page_index); 
    80001c6a:	85ce                	mv	a1,s3
    80001c6c:	856a                	mv	a0,s10
    80001c6e:	fffff097          	auipc	ra,0xfffff
    80001c72:	906080e7          	jalr	-1786(ra) # 80000574 <printf>
        if (ram_page_index == -1) { // if swap failed
    80001c76:	f99998e3          	bne	s3,s9,80001c06 <uvmalloc+0x11a>
          printf("error: process %d needs more than 32 page, exits...\n", myproc()->pid);
    80001c7a:	00000097          	auipc	ra,0x0
    80001c7e:	58a080e7          	jalr	1418(ra) # 80002204 <myproc>
    80001c82:	590c                	lw	a1,48(a0)
    80001c84:	00008517          	auipc	a0,0x8
    80001c88:	89450513          	addi	a0,a0,-1900 # 80009518 <digits+0x4d8>
    80001c8c:	fffff097          	auipc	ra,0xfffff
    80001c90:	8e8080e7          	jalr	-1816(ra) # 80000574 <printf>
          exit(-1);   
    80001c94:	8566                	mv	a0,s9
    80001c96:	00001097          	auipc	ra,0x1
    80001c9a:	fc6080e7          	jalr	-58(ra) # 80002c5c <exit>
    80001c9e:	b7a5                	j	80001c06 <uvmalloc+0x11a>
      if(mappages(pagetable, a, PGSIZE, (uint64)mem, PTE_W|PTE_X|PTE_R|PTE_U) != 0){
    80001ca0:	4779                	li	a4,30
    80001ca2:	86a6                	mv	a3,s1
    80001ca4:	6605                	lui	a2,0x1
    80001ca6:	85ca                	mv	a1,s2
    80001ca8:	8552                	mv	a0,s4
    80001caa:	fffff097          	auipc	ra,0xfffff
    80001cae:	3e4080e7          	jalr	996(ra) # 8000108e <mappages>
    80001cb2:	d135                	beqz	a0,80001c16 <uvmalloc+0x12a>
        kfree(mem);
    80001cb4:	8526                	mv	a0,s1
    80001cb6:	fffff097          	auipc	ra,0xfffff
    80001cba:	d20080e7          	jalr	-736(ra) # 800009d6 <kfree>
        uvmdealloc(pagetable, a, oldsz);
    80001cbe:	8656                	mv	a2,s5
    80001cc0:	85ca                	mv	a1,s2
    80001cc2:	8552                	mv	a0,s4
    80001cc4:	00000097          	auipc	ra,0x0
    80001cc8:	ac8080e7          	jalr	-1336(ra) # 8000178c <uvmdealloc>
        return 0;
    80001ccc:	4501                	li	a0,0
    80001cce:	a829                	j	80001ce8 <uvmalloc+0x1fc>
  printf("End uvmalloc, return newsz is: %d \n", newsz);
    80001cd0:	85de                	mv	a1,s7
    80001cd2:	00008517          	auipc	a0,0x8
    80001cd6:	87e50513          	addi	a0,a0,-1922 # 80009550 <digits+0x510>
    80001cda:	fffff097          	auipc	ra,0xfffff
    80001cde:	89a080e7          	jalr	-1894(ra) # 80000574 <printf>
  return newsz;
    80001ce2:	855e                	mv	a0,s7
    80001ce4:	a011                	j	80001ce8 <uvmalloc+0x1fc>
    return 0;
    80001ce6:	4501                	li	a0,0
}
    80001ce8:	70a6                	ld	ra,104(sp)
    80001cea:	7406                	ld	s0,96(sp)
    80001cec:	64e6                	ld	s1,88(sp)
    80001cee:	6946                	ld	s2,80(sp)
    80001cf0:	69a6                	ld	s3,72(sp)
    80001cf2:	6a06                	ld	s4,64(sp)
    80001cf4:	7ae2                	ld	s5,56(sp)
    80001cf6:	7b42                	ld	s6,48(sp)
    80001cf8:	7ba2                	ld	s7,40(sp)
    80001cfa:	7c02                	ld	s8,32(sp)
    80001cfc:	6ce2                	ld	s9,24(sp)
    80001cfe:	6d42                	ld	s10,16(sp)
    80001d00:	6da2                	ld	s11,8(sp)
    80001d02:	6165                	addi	sp,sp,112
    80001d04:	8082                	ret
    return oldsz;
    80001d06:	8556                	mv	a0,s5
    80001d08:	b7c5                	j	80001ce8 <uvmalloc+0x1fc>

0000000080001d0a <freewalk>:

// Recursively free page-table pages.
// All leaf mappings must already have been removed.
void
freewalk(pagetable_t pagetable)
{
    80001d0a:	7179                	addi	sp,sp,-48
    80001d0c:	f406                	sd	ra,40(sp)
    80001d0e:	f022                	sd	s0,32(sp)
    80001d10:	ec26                	sd	s1,24(sp)
    80001d12:	e84a                	sd	s2,16(sp)
    80001d14:	e44e                	sd	s3,8(sp)
    80001d16:	e052                	sd	s4,0(sp)
    80001d18:	1800                	addi	s0,sp,48
    80001d1a:	8a2a                	mv	s4,a0
  // there are 2^9 = 512 PTEs in a page table.
  for(int i = 0; i < 512; i++){
    80001d1c:	84aa                	mv	s1,a0
    80001d1e:	6905                	lui	s2,0x1
    80001d20:	992a                	add	s2,s2,a0
    pte_t pte = pagetable[i];
    if((pte & PTE_V) && (pte & (PTE_R|PTE_W|PTE_X)) == 0){
    80001d22:	4985                	li	s3,1
    80001d24:	a821                	j	80001d3c <freewalk+0x32>
      // this PTE points to a lower-level page table.
      uint64 child = PTE2PA(pte);
    80001d26:	8129                	srli	a0,a0,0xa
      freewalk((pagetable_t)child);
    80001d28:	0532                	slli	a0,a0,0xc
    80001d2a:	00000097          	auipc	ra,0x0
    80001d2e:	fe0080e7          	jalr	-32(ra) # 80001d0a <freewalk>
      pagetable[i] = 0;
    80001d32:	0004b023          	sd	zero,0(s1)
  for(int i = 0; i < 512; i++){
    80001d36:	04a1                	addi	s1,s1,8
    80001d38:	03248163          	beq	s1,s2,80001d5a <freewalk+0x50>
    pte_t pte = pagetable[i];
    80001d3c:	6088                	ld	a0,0(s1)
    if((pte & PTE_V) && (pte & (PTE_R|PTE_W|PTE_X)) == 0){
    80001d3e:	00f57793          	andi	a5,a0,15
    80001d42:	ff3782e3          	beq	a5,s3,80001d26 <freewalk+0x1c>
    } else if(pte & PTE_V){
    80001d46:	8905                	andi	a0,a0,1
    80001d48:	d57d                	beqz	a0,80001d36 <freewalk+0x2c>
      panic("freewalk: leaf");
    80001d4a:	00008517          	auipc	a0,0x8
    80001d4e:	82e50513          	addi	a0,a0,-2002 # 80009578 <digits+0x538>
    80001d52:	ffffe097          	auipc	ra,0xffffe
    80001d56:	7d8080e7          	jalr	2008(ra) # 8000052a <panic>
    }
  }
  kfree((void*)pagetable);
    80001d5a:	8552                	mv	a0,s4
    80001d5c:	fffff097          	auipc	ra,0xfffff
    80001d60:	c7a080e7          	jalr	-902(ra) # 800009d6 <kfree>
}
    80001d64:	70a2                	ld	ra,40(sp)
    80001d66:	7402                	ld	s0,32(sp)
    80001d68:	64e2                	ld	s1,24(sp)
    80001d6a:	6942                	ld	s2,16(sp)
    80001d6c:	69a2                	ld	s3,8(sp)
    80001d6e:	6a02                	ld	s4,0(sp)
    80001d70:	6145                	addi	sp,sp,48
    80001d72:	8082                	ret

0000000080001d74 <uvmfree>:

// Free user memory pages,
// then free page-table pages.
void
uvmfree(pagetable_t pagetable, uint64 sz)
{
    80001d74:	1101                	addi	sp,sp,-32
    80001d76:	ec06                	sd	ra,24(sp)
    80001d78:	e822                	sd	s0,16(sp)
    80001d7a:	e426                	sd	s1,8(sp)
    80001d7c:	1000                	addi	s0,sp,32
    80001d7e:	84aa                	mv	s1,a0
  if(sz > 0)
    80001d80:	e999                	bnez	a1,80001d96 <uvmfree+0x22>
    uvmunmap(pagetable, 0, PGROUNDUP(sz)/PGSIZE, 1);
  freewalk(pagetable);
    80001d82:	8526                	mv	a0,s1
    80001d84:	00000097          	auipc	ra,0x0
    80001d88:	f86080e7          	jalr	-122(ra) # 80001d0a <freewalk>
}
    80001d8c:	60e2                	ld	ra,24(sp)
    80001d8e:	6442                	ld	s0,16(sp)
    80001d90:	64a2                	ld	s1,8(sp)
    80001d92:	6105                	addi	sp,sp,32
    80001d94:	8082                	ret
    uvmunmap(pagetable, 0, PGROUNDUP(sz)/PGSIZE, 1);
    80001d96:	6605                	lui	a2,0x1
    80001d98:	167d                	addi	a2,a2,-1
    80001d9a:	962e                	add	a2,a2,a1
    80001d9c:	4685                	li	a3,1
    80001d9e:	8231                	srli	a2,a2,0xc
    80001da0:	4581                	li	a1,0
    80001da2:	fffff097          	auipc	ra,0xfffff
    80001da6:	4e6080e7          	jalr	1254(ra) # 80001288 <uvmunmap>
    80001daa:	bfe1                	j	80001d82 <uvmfree+0xe>

0000000080001dac <uvmcopy>:
// physical memory.
// returns 0 on success, -1 on failure.
// frees any allocated pages on failure.
int
uvmcopy(pagetable_t old, pagetable_t new, uint64 sz)
{
    80001dac:	715d                	addi	sp,sp,-80
    80001dae:	e486                	sd	ra,72(sp)
    80001db0:	e0a2                	sd	s0,64(sp)
    80001db2:	fc26                	sd	s1,56(sp)
    80001db4:	f84a                	sd	s2,48(sp)
    80001db6:	f44e                	sd	s3,40(sp)
    80001db8:	f052                	sd	s4,32(sp)
    80001dba:	ec56                	sd	s5,24(sp)
    80001dbc:	e85a                	sd	s6,16(sp)
    80001dbe:	e45e                	sd	s7,8(sp)
    80001dc0:	0880                	addi	s0,sp,80
    80001dc2:	8b2a                	mv	s6,a0
    80001dc4:	8aae                	mv	s5,a1
    80001dc6:	8a32                	mv	s4,a2
  printf("In uvmcopy, with sz %d \n", sz); 
    80001dc8:	85b2                	mv	a1,a2
    80001dca:	00007517          	auipc	a0,0x7
    80001dce:	7be50513          	addi	a0,a0,1982 # 80009588 <digits+0x548>
    80001dd2:	ffffe097          	auipc	ra,0xffffe
    80001dd6:	7a2080e7          	jalr	1954(ra) # 80000574 <printf>
  pte_t *pte;
  uint64 pa, i;
  uint flags;
  char *mem;

  for(i = 0; i < sz; i += PGSIZE){
    80001dda:	0a0a0a63          	beqz	s4,80001e8e <uvmcopy+0xe2>
    80001dde:	4981                	li	s3,0
    if((pte = walk(old, i, 0)) == 0)
    80001de0:	4601                	li	a2,0
    80001de2:	85ce                	mv	a1,s3
    80001de4:	855a                	mv	a0,s6
    80001de6:	fffff097          	auipc	ra,0xfffff
    80001dea:	1c0080e7          	jalr	448(ra) # 80000fa6 <walk>
    80001dee:	c531                	beqz	a0,80001e3a <uvmcopy+0x8e>
      panic("uvmcopy: pte should exist");
    if((*pte & PTE_V) == 0)
    80001df0:	6118                	ld	a4,0(a0)
    80001df2:	00177793          	andi	a5,a4,1
    80001df6:	cbb1                	beqz	a5,80001e4a <uvmcopy+0x9e>
      panic("uvmcopy: page not present");
    pa = PTE2PA(*pte);
    80001df8:	00a75593          	srli	a1,a4,0xa
    80001dfc:	00c59b93          	slli	s7,a1,0xc
    flags = PTE_FLAGS(*pte);
    80001e00:	3ff77493          	andi	s1,a4,1023
    if((mem = kalloc()) == 0)
    80001e04:	fffff097          	auipc	ra,0xfffff
    80001e08:	cce080e7          	jalr	-818(ra) # 80000ad2 <kalloc>
    80001e0c:	892a                	mv	s2,a0
    80001e0e:	c939                	beqz	a0,80001e64 <uvmcopy+0xb8>
      goto err;
    memmove(mem, (char*)pa, PGSIZE);
    80001e10:	6605                	lui	a2,0x1
    80001e12:	85de                	mv	a1,s7
    80001e14:	fffff097          	auipc	ra,0xfffff
    80001e18:	f06080e7          	jalr	-250(ra) # 80000d1a <memmove>
    if(mappages(new, i, PGSIZE, (uint64)mem, flags) != 0){
    80001e1c:	8726                	mv	a4,s1
    80001e1e:	86ca                	mv	a3,s2
    80001e20:	6605                	lui	a2,0x1
    80001e22:	85ce                	mv	a1,s3
    80001e24:	8556                	mv	a0,s5
    80001e26:	fffff097          	auipc	ra,0xfffff
    80001e2a:	268080e7          	jalr	616(ra) # 8000108e <mappages>
    80001e2e:	e515                	bnez	a0,80001e5a <uvmcopy+0xae>
  for(i = 0; i < sz; i += PGSIZE){
    80001e30:	6785                	lui	a5,0x1
    80001e32:	99be                	add	s3,s3,a5
    80001e34:	fb49e6e3          	bltu	s3,s4,80001de0 <uvmcopy+0x34>
    80001e38:	a081                	j	80001e78 <uvmcopy+0xcc>
      panic("uvmcopy: pte should exist");
    80001e3a:	00007517          	auipc	a0,0x7
    80001e3e:	76e50513          	addi	a0,a0,1902 # 800095a8 <digits+0x568>
    80001e42:	ffffe097          	auipc	ra,0xffffe
    80001e46:	6e8080e7          	jalr	1768(ra) # 8000052a <panic>
      panic("uvmcopy: page not present");
    80001e4a:	00007517          	auipc	a0,0x7
    80001e4e:	77e50513          	addi	a0,a0,1918 # 800095c8 <digits+0x588>
    80001e52:	ffffe097          	auipc	ra,0xffffe
    80001e56:	6d8080e7          	jalr	1752(ra) # 8000052a <panic>
      kfree(mem);
    80001e5a:	854a                	mv	a0,s2
    80001e5c:	fffff097          	auipc	ra,0xfffff
    80001e60:	b7a080e7          	jalr	-1158(ra) # 800009d6 <kfree>
    }
  }
  return 0;

 err:
  uvmunmap(new, 0, i / PGSIZE, 1);
    80001e64:	4685                	li	a3,1
    80001e66:	00c9d613          	srli	a2,s3,0xc
    80001e6a:	4581                	li	a1,0
    80001e6c:	8556                	mv	a0,s5
    80001e6e:	fffff097          	auipc	ra,0xfffff
    80001e72:	41a080e7          	jalr	1050(ra) # 80001288 <uvmunmap>
  return -1;
    80001e76:	557d                	li	a0,-1
}
    80001e78:	60a6                	ld	ra,72(sp)
    80001e7a:	6406                	ld	s0,64(sp)
    80001e7c:	74e2                	ld	s1,56(sp)
    80001e7e:	7942                	ld	s2,48(sp)
    80001e80:	79a2                	ld	s3,40(sp)
    80001e82:	7a02                	ld	s4,32(sp)
    80001e84:	6ae2                	ld	s5,24(sp)
    80001e86:	6b42                	ld	s6,16(sp)
    80001e88:	6ba2                	ld	s7,8(sp)
    80001e8a:	6161                	addi	sp,sp,80
    80001e8c:	8082                	ret
  return 0;
    80001e8e:	4501                	li	a0,0
    80001e90:	b7e5                	j	80001e78 <uvmcopy+0xcc>

0000000080001e92 <uvmclear>:

// mark a PTE invalid for user access.
// used by exec for the user stack guard page.
void
uvmclear(pagetable_t pagetable, uint64 va)
{
    80001e92:	1141                	addi	sp,sp,-16
    80001e94:	e406                	sd	ra,8(sp)
    80001e96:	e022                	sd	s0,0(sp)
    80001e98:	0800                	addi	s0,sp,16
  pte_t *pte;
  
  pte = walk(pagetable, va, 0);
    80001e9a:	4601                	li	a2,0
    80001e9c:	fffff097          	auipc	ra,0xfffff
    80001ea0:	10a080e7          	jalr	266(ra) # 80000fa6 <walk>
  if(pte == 0)
    80001ea4:	c901                	beqz	a0,80001eb4 <uvmclear+0x22>
    panic("uvmclear");
  *pte &= ~PTE_U;
    80001ea6:	611c                	ld	a5,0(a0)
    80001ea8:	9bbd                	andi	a5,a5,-17
    80001eaa:	e11c                	sd	a5,0(a0)
}
    80001eac:	60a2                	ld	ra,8(sp)
    80001eae:	6402                	ld	s0,0(sp)
    80001eb0:	0141                	addi	sp,sp,16
    80001eb2:	8082                	ret
    panic("uvmclear");
    80001eb4:	00007517          	auipc	a0,0x7
    80001eb8:	73450513          	addi	a0,a0,1844 # 800095e8 <digits+0x5a8>
    80001ebc:	ffffe097          	auipc	ra,0xffffe
    80001ec0:	66e080e7          	jalr	1646(ra) # 8000052a <panic>

0000000080001ec4 <copyout>:
int
copyout(pagetable_t pagetable, uint64 dstva, char *src, uint64 len)
{
  uint64 n, va0, pa0;

  while(len > 0){
    80001ec4:	c6bd                	beqz	a3,80001f32 <copyout+0x6e>
{
    80001ec6:	715d                	addi	sp,sp,-80
    80001ec8:	e486                	sd	ra,72(sp)
    80001eca:	e0a2                	sd	s0,64(sp)
    80001ecc:	fc26                	sd	s1,56(sp)
    80001ece:	f84a                	sd	s2,48(sp)
    80001ed0:	f44e                	sd	s3,40(sp)
    80001ed2:	f052                	sd	s4,32(sp)
    80001ed4:	ec56                	sd	s5,24(sp)
    80001ed6:	e85a                	sd	s6,16(sp)
    80001ed8:	e45e                	sd	s7,8(sp)
    80001eda:	e062                	sd	s8,0(sp)
    80001edc:	0880                	addi	s0,sp,80
    80001ede:	8b2a                	mv	s6,a0
    80001ee0:	8c2e                	mv	s8,a1
    80001ee2:	8a32                	mv	s4,a2
    80001ee4:	89b6                	mv	s3,a3
    va0 = PGROUNDDOWN(dstva);
    80001ee6:	7bfd                	lui	s7,0xfffff
    pa0 = walkaddr(pagetable, va0);
    if(pa0 == 0)
      return -1;
    n = PGSIZE - (dstva - va0);
    80001ee8:	6a85                	lui	s5,0x1
    80001eea:	a015                	j	80001f0e <copyout+0x4a>
    if(n > len)
      n = len;
    memmove((void *)(pa0 + (dstva - va0)), src, n);
    80001eec:	9562                	add	a0,a0,s8
    80001eee:	0004861b          	sext.w	a2,s1
    80001ef2:	85d2                	mv	a1,s4
    80001ef4:	41250533          	sub	a0,a0,s2
    80001ef8:	fffff097          	auipc	ra,0xfffff
    80001efc:	e22080e7          	jalr	-478(ra) # 80000d1a <memmove>

    len -= n;
    80001f00:	409989b3          	sub	s3,s3,s1
    src += n;
    80001f04:	9a26                	add	s4,s4,s1
    dstva = va0 + PGSIZE;
    80001f06:	01590c33          	add	s8,s2,s5
  while(len > 0){
    80001f0a:	02098263          	beqz	s3,80001f2e <copyout+0x6a>
    va0 = PGROUNDDOWN(dstva);
    80001f0e:	017c7933          	and	s2,s8,s7
    pa0 = walkaddr(pagetable, va0);
    80001f12:	85ca                	mv	a1,s2
    80001f14:	855a                	mv	a0,s6
    80001f16:	fffff097          	auipc	ra,0xfffff
    80001f1a:	136080e7          	jalr	310(ra) # 8000104c <walkaddr>
    if(pa0 == 0)
    80001f1e:	cd01                	beqz	a0,80001f36 <copyout+0x72>
    n = PGSIZE - (dstva - va0);
    80001f20:	418904b3          	sub	s1,s2,s8
    80001f24:	94d6                	add	s1,s1,s5
    if(n > len)
    80001f26:	fc99f3e3          	bgeu	s3,s1,80001eec <copyout+0x28>
    80001f2a:	84ce                	mv	s1,s3
    80001f2c:	b7c1                	j	80001eec <copyout+0x28>
  }
  return 0;
    80001f2e:	4501                	li	a0,0
    80001f30:	a021                	j	80001f38 <copyout+0x74>
    80001f32:	4501                	li	a0,0
}
    80001f34:	8082                	ret
      return -1;
    80001f36:	557d                	li	a0,-1
}
    80001f38:	60a6                	ld	ra,72(sp)
    80001f3a:	6406                	ld	s0,64(sp)
    80001f3c:	74e2                	ld	s1,56(sp)
    80001f3e:	7942                	ld	s2,48(sp)
    80001f40:	79a2                	ld	s3,40(sp)
    80001f42:	7a02                	ld	s4,32(sp)
    80001f44:	6ae2                	ld	s5,24(sp)
    80001f46:	6b42                	ld	s6,16(sp)
    80001f48:	6ba2                	ld	s7,8(sp)
    80001f4a:	6c02                	ld	s8,0(sp)
    80001f4c:	6161                	addi	sp,sp,80
    80001f4e:	8082                	ret

0000000080001f50 <copyin>:
int
copyin(pagetable_t pagetable, char *dst, uint64 srcva, uint64 len)
{
  uint64 n, va0, pa0;

  while(len > 0){
    80001f50:	caa5                	beqz	a3,80001fc0 <copyin+0x70>
{
    80001f52:	715d                	addi	sp,sp,-80
    80001f54:	e486                	sd	ra,72(sp)
    80001f56:	e0a2                	sd	s0,64(sp)
    80001f58:	fc26                	sd	s1,56(sp)
    80001f5a:	f84a                	sd	s2,48(sp)
    80001f5c:	f44e                	sd	s3,40(sp)
    80001f5e:	f052                	sd	s4,32(sp)
    80001f60:	ec56                	sd	s5,24(sp)
    80001f62:	e85a                	sd	s6,16(sp)
    80001f64:	e45e                	sd	s7,8(sp)
    80001f66:	e062                	sd	s8,0(sp)
    80001f68:	0880                	addi	s0,sp,80
    80001f6a:	8b2a                	mv	s6,a0
    80001f6c:	8a2e                	mv	s4,a1
    80001f6e:	8c32                	mv	s8,a2
    80001f70:	89b6                	mv	s3,a3
    va0 = PGROUNDDOWN(srcva);
    80001f72:	7bfd                	lui	s7,0xfffff
    pa0 = walkaddr(pagetable, va0);
    if(pa0 == 0)
      return -1;
    n = PGSIZE - (srcva - va0);
    80001f74:	6a85                	lui	s5,0x1
    80001f76:	a01d                	j	80001f9c <copyin+0x4c>
    if(n > len)
      n = len;
    memmove(dst, (void *)(pa0 + (srcva - va0)), n);
    80001f78:	018505b3          	add	a1,a0,s8
    80001f7c:	0004861b          	sext.w	a2,s1
    80001f80:	412585b3          	sub	a1,a1,s2
    80001f84:	8552                	mv	a0,s4
    80001f86:	fffff097          	auipc	ra,0xfffff
    80001f8a:	d94080e7          	jalr	-620(ra) # 80000d1a <memmove>

    len -= n;
    80001f8e:	409989b3          	sub	s3,s3,s1
    dst += n;
    80001f92:	9a26                	add	s4,s4,s1
    srcva = va0 + PGSIZE;
    80001f94:	01590c33          	add	s8,s2,s5
  while(len > 0){
    80001f98:	02098263          	beqz	s3,80001fbc <copyin+0x6c>
    va0 = PGROUNDDOWN(srcva);
    80001f9c:	017c7933          	and	s2,s8,s7
    pa0 = walkaddr(pagetable, va0);
    80001fa0:	85ca                	mv	a1,s2
    80001fa2:	855a                	mv	a0,s6
    80001fa4:	fffff097          	auipc	ra,0xfffff
    80001fa8:	0a8080e7          	jalr	168(ra) # 8000104c <walkaddr>
    if(pa0 == 0)
    80001fac:	cd01                	beqz	a0,80001fc4 <copyin+0x74>
    n = PGSIZE - (srcva - va0);
    80001fae:	418904b3          	sub	s1,s2,s8
    80001fb2:	94d6                	add	s1,s1,s5
    if(n > len)
    80001fb4:	fc99f2e3          	bgeu	s3,s1,80001f78 <copyin+0x28>
    80001fb8:	84ce                	mv	s1,s3
    80001fba:	bf7d                	j	80001f78 <copyin+0x28>
  }
  return 0;
    80001fbc:	4501                	li	a0,0
    80001fbe:	a021                	j	80001fc6 <copyin+0x76>
    80001fc0:	4501                	li	a0,0
}
    80001fc2:	8082                	ret
      return -1;
    80001fc4:	557d                	li	a0,-1
}
    80001fc6:	60a6                	ld	ra,72(sp)
    80001fc8:	6406                	ld	s0,64(sp)
    80001fca:	74e2                	ld	s1,56(sp)
    80001fcc:	7942                	ld	s2,48(sp)
    80001fce:	79a2                	ld	s3,40(sp)
    80001fd0:	7a02                	ld	s4,32(sp)
    80001fd2:	6ae2                	ld	s5,24(sp)
    80001fd4:	6b42                	ld	s6,16(sp)
    80001fd6:	6ba2                	ld	s7,8(sp)
    80001fd8:	6c02                	ld	s8,0(sp)
    80001fda:	6161                	addi	sp,sp,80
    80001fdc:	8082                	ret

0000000080001fde <copyinstr>:
copyinstr(pagetable_t pagetable, char *dst, uint64 srcva, uint64 max)
{
  uint64 n, va0, pa0;
  int got_null = 0;

  while(got_null == 0 && max > 0){
    80001fde:	c6c5                	beqz	a3,80002086 <copyinstr+0xa8>
{
    80001fe0:	715d                	addi	sp,sp,-80
    80001fe2:	e486                	sd	ra,72(sp)
    80001fe4:	e0a2                	sd	s0,64(sp)
    80001fe6:	fc26                	sd	s1,56(sp)
    80001fe8:	f84a                	sd	s2,48(sp)
    80001fea:	f44e                	sd	s3,40(sp)
    80001fec:	f052                	sd	s4,32(sp)
    80001fee:	ec56                	sd	s5,24(sp)
    80001ff0:	e85a                	sd	s6,16(sp)
    80001ff2:	e45e                	sd	s7,8(sp)
    80001ff4:	0880                	addi	s0,sp,80
    80001ff6:	8a2a                	mv	s4,a0
    80001ff8:	8b2e                	mv	s6,a1
    80001ffa:	8bb2                	mv	s7,a2
    80001ffc:	84b6                	mv	s1,a3
    va0 = PGROUNDDOWN(srcva);
    80001ffe:	7afd                	lui	s5,0xfffff
    pa0 = walkaddr(pagetable, va0);
    if(pa0 == 0)
      return -1;
    n = PGSIZE - (srcva - va0);
    80002000:	6985                	lui	s3,0x1
    80002002:	a035                	j	8000202e <copyinstr+0x50>
      n = max;

    char *p = (char *) (pa0 + (srcva - va0));
    while(n > 0){
      if(*p == '\0'){
        *dst = '\0';
    80002004:	00078023          	sb	zero,0(a5) # 1000 <_entry-0x7ffff000>
    80002008:	4785                	li	a5,1
      dst++;
    }

    srcva = va0 + PGSIZE;
  }
  if(got_null){
    8000200a:	0017b793          	seqz	a5,a5
    8000200e:	40f00533          	neg	a0,a5
    return 0;
  } else {
    return -1;
  }
}
    80002012:	60a6                	ld	ra,72(sp)
    80002014:	6406                	ld	s0,64(sp)
    80002016:	74e2                	ld	s1,56(sp)
    80002018:	7942                	ld	s2,48(sp)
    8000201a:	79a2                	ld	s3,40(sp)
    8000201c:	7a02                	ld	s4,32(sp)
    8000201e:	6ae2                	ld	s5,24(sp)
    80002020:	6b42                	ld	s6,16(sp)
    80002022:	6ba2                	ld	s7,8(sp)
    80002024:	6161                	addi	sp,sp,80
    80002026:	8082                	ret
    srcva = va0 + PGSIZE;
    80002028:	01390bb3          	add	s7,s2,s3
  while(got_null == 0 && max > 0){
    8000202c:	c8a9                	beqz	s1,8000207e <copyinstr+0xa0>
    va0 = PGROUNDDOWN(srcva);
    8000202e:	015bf933          	and	s2,s7,s5
    pa0 = walkaddr(pagetable, va0);
    80002032:	85ca                	mv	a1,s2
    80002034:	8552                	mv	a0,s4
    80002036:	fffff097          	auipc	ra,0xfffff
    8000203a:	016080e7          	jalr	22(ra) # 8000104c <walkaddr>
    if(pa0 == 0)
    8000203e:	c131                	beqz	a0,80002082 <copyinstr+0xa4>
    n = PGSIZE - (srcva - va0);
    80002040:	41790833          	sub	a6,s2,s7
    80002044:	984e                	add	a6,a6,s3
    if(n > max)
    80002046:	0104f363          	bgeu	s1,a6,8000204c <copyinstr+0x6e>
    8000204a:	8826                	mv	a6,s1
    char *p = (char *) (pa0 + (srcva - va0));
    8000204c:	955e                	add	a0,a0,s7
    8000204e:	41250533          	sub	a0,a0,s2
    while(n > 0){
    80002052:	fc080be3          	beqz	a6,80002028 <copyinstr+0x4a>
    80002056:	985a                	add	a6,a6,s6
    80002058:	87da                	mv	a5,s6
      if(*p == '\0'){
    8000205a:	41650633          	sub	a2,a0,s6
    8000205e:	14fd                	addi	s1,s1,-1
    80002060:	9b26                	add	s6,s6,s1
    80002062:	00f60733          	add	a4,a2,a5
    80002066:	00074703          	lbu	a4,0(a4) # fffffffffffff000 <end+0xffffffff7ffd1000>
    8000206a:	df49                	beqz	a4,80002004 <copyinstr+0x26>
        *dst = *p;
    8000206c:	00e78023          	sb	a4,0(a5)
      --max;
    80002070:	40fb04b3          	sub	s1,s6,a5
      dst++;
    80002074:	0785                	addi	a5,a5,1
    while(n > 0){
    80002076:	ff0796e3          	bne	a5,a6,80002062 <copyinstr+0x84>
      dst++;
    8000207a:	8b42                	mv	s6,a6
    8000207c:	b775                	j	80002028 <copyinstr+0x4a>
    8000207e:	4781                	li	a5,0
    80002080:	b769                	j	8000200a <copyinstr+0x2c>
      return -1;
    80002082:	557d                	li	a0,-1
    80002084:	b779                	j	80002012 <copyinstr+0x34>
  int got_null = 0;
    80002086:	4781                	li	a5,0
  if(got_null){
    80002088:	0017b793          	seqz	a5,a5
    8000208c:	40f00533          	neg	a0,a5
}
    80002090:	8082                	ret

0000000080002092 <proc_mapstacks>:

// Allocate a page for each process's kernel stack.
// Map it high in memory, followed by an invalid
// guard page.
void
proc_mapstacks(pagetable_t kpgtbl) {
    80002092:	7139                	addi	sp,sp,-64
    80002094:	fc06                	sd	ra,56(sp)
    80002096:	f822                	sd	s0,48(sp)
    80002098:	f426                	sd	s1,40(sp)
    8000209a:	f04a                	sd	s2,32(sp)
    8000209c:	ec4e                	sd	s3,24(sp)
    8000209e:	e852                	sd	s4,16(sp)
    800020a0:	e456                	sd	s5,8(sp)
    800020a2:	e05a                	sd	s6,0(sp)
    800020a4:	0080                	addi	s0,sp,64
    800020a6:	89aa                	mv	s3,a0
  struct proc *p;
  
  for(p = proc; p < &proc[NPROC]; p++) {
    800020a8:	00011497          	auipc	s1,0x11
    800020ac:	62848493          	addi	s1,s1,1576 # 800136d0 <proc>
    char *pa = kalloc();
    if(pa == 0)
      panic("kalloc");
    uint64 va = KSTACK((int) (p - proc));
    800020b0:	8b26                	mv	s6,s1
    800020b2:	00007a97          	auipc	s5,0x7
    800020b6:	f4ea8a93          	addi	s5,s5,-178 # 80009000 <etext>
    800020ba:	04000937          	lui	s2,0x4000
    800020be:	197d                	addi	s2,s2,-1
    800020c0:	0932                	slli	s2,s2,0xc
  for(p = proc; p < &proc[NPROC]; p++) {
    800020c2:	0001da17          	auipc	s4,0x1d
    800020c6:	60ea0a13          	addi	s4,s4,1550 # 8001f6d0 <tickslock>
    char *pa = kalloc();
    800020ca:	fffff097          	auipc	ra,0xfffff
    800020ce:	a08080e7          	jalr	-1528(ra) # 80000ad2 <kalloc>
    800020d2:	862a                	mv	a2,a0
    if(pa == 0)
    800020d4:	c131                	beqz	a0,80002118 <proc_mapstacks+0x86>
    uint64 va = KSTACK((int) (p - proc));
    800020d6:	416485b3          	sub	a1,s1,s6
    800020da:	85a1                	srai	a1,a1,0x8
    800020dc:	000ab783          	ld	a5,0(s5)
    800020e0:	02f585b3          	mul	a1,a1,a5
    800020e4:	2585                	addiw	a1,a1,1
    800020e6:	00d5959b          	slliw	a1,a1,0xd
    kvmmap(kpgtbl, va, (uint64)pa, PGSIZE, PTE_R | PTE_W);
    800020ea:	4719                	li	a4,6
    800020ec:	6685                	lui	a3,0x1
    800020ee:	40b905b3          	sub	a1,s2,a1
    800020f2:	854e                	mv	a0,s3
    800020f4:	fffff097          	auipc	ra,0xfffff
    800020f8:	06e080e7          	jalr	110(ra) # 80001162 <kvmmap>
  for(p = proc; p < &proc[NPROC]; p++) {
    800020fc:	30048493          	addi	s1,s1,768
    80002100:	fd4495e3          	bne	s1,s4,800020ca <proc_mapstacks+0x38>
  }
}
    80002104:	70e2                	ld	ra,56(sp)
    80002106:	7442                	ld	s0,48(sp)
    80002108:	74a2                	ld	s1,40(sp)
    8000210a:	7902                	ld	s2,32(sp)
    8000210c:	69e2                	ld	s3,24(sp)
    8000210e:	6a42                	ld	s4,16(sp)
    80002110:	6aa2                	ld	s5,8(sp)
    80002112:	6b02                	ld	s6,0(sp)
    80002114:	6121                	addi	sp,sp,64
    80002116:	8082                	ret
      panic("kalloc");
    80002118:	00007517          	auipc	a0,0x7
    8000211c:	4e050513          	addi	a0,a0,1248 # 800095f8 <digits+0x5b8>
    80002120:	ffffe097          	auipc	ra,0xffffe
    80002124:	40a080e7          	jalr	1034(ra) # 8000052a <panic>

0000000080002128 <procinit>:

// initialize the proc table at boot time.
void
procinit(void)
{
    80002128:	7139                	addi	sp,sp,-64
    8000212a:	fc06                	sd	ra,56(sp)
    8000212c:	f822                	sd	s0,48(sp)
    8000212e:	f426                	sd	s1,40(sp)
    80002130:	f04a                	sd	s2,32(sp)
    80002132:	ec4e                	sd	s3,24(sp)
    80002134:	e852                	sd	s4,16(sp)
    80002136:	e456                	sd	s5,8(sp)
    80002138:	e05a                	sd	s6,0(sp)
    8000213a:	0080                	addi	s0,sp,64
  struct proc *p;
  
  initlock(&pid_lock, "nextpid");
    8000213c:	00007597          	auipc	a1,0x7
    80002140:	4c458593          	addi	a1,a1,1220 # 80009600 <digits+0x5c0>
    80002144:	00010517          	auipc	a0,0x10
    80002148:	15c50513          	addi	a0,a0,348 # 800122a0 <pid_lock>
    8000214c:	fffff097          	auipc	ra,0xfffff
    80002150:	9e6080e7          	jalr	-1562(ra) # 80000b32 <initlock>
  initlock(&wait_lock, "wait_lock");
    80002154:	00007597          	auipc	a1,0x7
    80002158:	4b458593          	addi	a1,a1,1204 # 80009608 <digits+0x5c8>
    8000215c:	00010517          	auipc	a0,0x10
    80002160:	15c50513          	addi	a0,a0,348 # 800122b8 <wait_lock>
    80002164:	fffff097          	auipc	ra,0xfffff
    80002168:	9ce080e7          	jalr	-1586(ra) # 80000b32 <initlock>
  for(p = proc; p < &proc[NPROC]; p++) {
    8000216c:	00011497          	auipc	s1,0x11
    80002170:	56448493          	addi	s1,s1,1380 # 800136d0 <proc>
      initlock(&p->lock, "proc");
    80002174:	00007b17          	auipc	s6,0x7
    80002178:	4a4b0b13          	addi	s6,s6,1188 # 80009618 <digits+0x5d8>
      p->kstack = KSTACK((int) (p - proc));
    8000217c:	8aa6                	mv	s5,s1
    8000217e:	00007a17          	auipc	s4,0x7
    80002182:	e82a0a13          	addi	s4,s4,-382 # 80009000 <etext>
    80002186:	04000937          	lui	s2,0x4000
    8000218a:	197d                	addi	s2,s2,-1
    8000218c:	0932                	slli	s2,s2,0xc
  for(p = proc; p < &proc[NPROC]; p++) {
    8000218e:	0001d997          	auipc	s3,0x1d
    80002192:	54298993          	addi	s3,s3,1346 # 8001f6d0 <tickslock>
      initlock(&p->lock, "proc");
    80002196:	85da                	mv	a1,s6
    80002198:	8526                	mv	a0,s1
    8000219a:	fffff097          	auipc	ra,0xfffff
    8000219e:	998080e7          	jalr	-1640(ra) # 80000b32 <initlock>
      p->kstack = KSTACK((int) (p - proc));
    800021a2:	415487b3          	sub	a5,s1,s5
    800021a6:	87a1                	srai	a5,a5,0x8
    800021a8:	000a3703          	ld	a4,0(s4)
    800021ac:	02e787b3          	mul	a5,a5,a4
    800021b0:	2785                	addiw	a5,a5,1
    800021b2:	00d7979b          	slliw	a5,a5,0xd
    800021b6:	40f907b3          	sub	a5,s2,a5
    800021ba:	e0bc                	sd	a5,64(s1)
  for(p = proc; p < &proc[NPROC]; p++) {
    800021bc:	30048493          	addi	s1,s1,768
    800021c0:	fd349be3          	bne	s1,s3,80002196 <procinit+0x6e>
  }
}
    800021c4:	70e2                	ld	ra,56(sp)
    800021c6:	7442                	ld	s0,48(sp)
    800021c8:	74a2                	ld	s1,40(sp)
    800021ca:	7902                	ld	s2,32(sp)
    800021cc:	69e2                	ld	s3,24(sp)
    800021ce:	6a42                	ld	s4,16(sp)
    800021d0:	6aa2                	ld	s5,8(sp)
    800021d2:	6b02                	ld	s6,0(sp)
    800021d4:	6121                	addi	sp,sp,64
    800021d6:	8082                	ret

00000000800021d8 <cpuid>:
// Must be called with interrupts disabled,
// to prevent race with process being moved
// to a different CPU.
int
cpuid()
{
    800021d8:	1141                	addi	sp,sp,-16
    800021da:	e422                	sd	s0,8(sp)
    800021dc:	0800                	addi	s0,sp,16
  asm volatile("mv %0, tp" : "=r" (x) );
    800021de:	8512                	mv	a0,tp
  int id = r_tp();
  return id;
}
    800021e0:	2501                	sext.w	a0,a0
    800021e2:	6422                	ld	s0,8(sp)
    800021e4:	0141                	addi	sp,sp,16
    800021e6:	8082                	ret

00000000800021e8 <mycpu>:

// Return this CPU's cpu struct.
// Interrupts must be disabled.
struct cpu*
mycpu(void) {
    800021e8:	1141                	addi	sp,sp,-16
    800021ea:	e422                	sd	s0,8(sp)
    800021ec:	0800                	addi	s0,sp,16
    800021ee:	8792                	mv	a5,tp
  int id = cpuid();
  struct cpu *c = &cpus[id];
    800021f0:	2781                	sext.w	a5,a5
    800021f2:	079e                	slli	a5,a5,0x7
  return c;
}
    800021f4:	00010517          	auipc	a0,0x10
    800021f8:	0dc50513          	addi	a0,a0,220 # 800122d0 <cpus>
    800021fc:	953e                	add	a0,a0,a5
    800021fe:	6422                	ld	s0,8(sp)
    80002200:	0141                	addi	sp,sp,16
    80002202:	8082                	ret

0000000080002204 <myproc>:

// Return the current struct proc *, or zero if none.
struct proc*
myproc(void) {
    80002204:	1101                	addi	sp,sp,-32
    80002206:	ec06                	sd	ra,24(sp)
    80002208:	e822                	sd	s0,16(sp)
    8000220a:	e426                	sd	s1,8(sp)
    8000220c:	1000                	addi	s0,sp,32
  push_off();
    8000220e:	fffff097          	auipc	ra,0xfffff
    80002212:	968080e7          	jalr	-1688(ra) # 80000b76 <push_off>
    80002216:	8792                	mv	a5,tp
  struct cpu *c = mycpu();
  struct proc *p = c->proc;
    80002218:	2781                	sext.w	a5,a5
    8000221a:	079e                	slli	a5,a5,0x7
    8000221c:	00010717          	auipc	a4,0x10
    80002220:	08470713          	addi	a4,a4,132 # 800122a0 <pid_lock>
    80002224:	97ba                	add	a5,a5,a4
    80002226:	7b84                	ld	s1,48(a5)
  pop_off();
    80002228:	fffff097          	auipc	ra,0xfffff
    8000222c:	9ee080e7          	jalr	-1554(ra) # 80000c16 <pop_off>
  return p;
}
    80002230:	8526                	mv	a0,s1
    80002232:	60e2                	ld	ra,24(sp)
    80002234:	6442                	ld	s0,16(sp)
    80002236:	64a2                	ld	s1,8(sp)
    80002238:	6105                	addi	sp,sp,32
    8000223a:	8082                	ret

000000008000223c <forkret>:

// A fork child's very first scheduling by scheduler()
// will swtch to forkret.
void
forkret(void)
{
    8000223c:	1141                	addi	sp,sp,-16
    8000223e:	e406                	sd	ra,8(sp)
    80002240:	e022                	sd	s0,0(sp)
    80002242:	0800                	addi	s0,sp,16
  static int first = 1;

  // Still holding p->lock from scheduler.
  release(&myproc()->lock);
    80002244:	00000097          	auipc	ra,0x0
    80002248:	fc0080e7          	jalr	-64(ra) # 80002204 <myproc>
    8000224c:	fffff097          	auipc	ra,0xfffff
    80002250:	a2a080e7          	jalr	-1494(ra) # 80000c76 <release>

  if (first) {
    80002254:	00008797          	auipc	a5,0x8
    80002258:	a8c7a783          	lw	a5,-1396(a5) # 80009ce0 <first.1>
    8000225c:	eb89                	bnez	a5,8000226e <forkret+0x32>
    // be run from main().
    first = 0;
    fsinit(ROOTDEV);
  }

  usertrapret();
    8000225e:	00001097          	auipc	ra,0x1
    80002262:	d62080e7          	jalr	-670(ra) # 80002fc0 <usertrapret>
}
    80002266:	60a2                	ld	ra,8(sp)
    80002268:	6402                	ld	s0,0(sp)
    8000226a:	0141                	addi	sp,sp,16
    8000226c:	8082                	ret
    first = 0;
    8000226e:	00008797          	auipc	a5,0x8
    80002272:	a607a923          	sw	zero,-1422(a5) # 80009ce0 <first.1>
    fsinit(ROOTDEV);
    80002276:	4505                	li	a0,1
    80002278:	00002097          	auipc	ra,0x2
    8000227c:	ac2080e7          	jalr	-1342(ra) # 80003d3a <fsinit>
    80002280:	bff9                	j	8000225e <forkret+0x22>

0000000080002282 <allocpid>:
allocpid() {
    80002282:	1101                	addi	sp,sp,-32
    80002284:	ec06                	sd	ra,24(sp)
    80002286:	e822                	sd	s0,16(sp)
    80002288:	e426                	sd	s1,8(sp)
    8000228a:	e04a                	sd	s2,0(sp)
    8000228c:	1000                	addi	s0,sp,32
  acquire(&pid_lock);
    8000228e:	00010917          	auipc	s2,0x10
    80002292:	01290913          	addi	s2,s2,18 # 800122a0 <pid_lock>
    80002296:	854a                	mv	a0,s2
    80002298:	fffff097          	auipc	ra,0xfffff
    8000229c:	92a080e7          	jalr	-1750(ra) # 80000bc2 <acquire>
  pid = nextpid;
    800022a0:	00008797          	auipc	a5,0x8
    800022a4:	a4478793          	addi	a5,a5,-1468 # 80009ce4 <nextpid>
    800022a8:	4384                	lw	s1,0(a5)
  nextpid = nextpid + 1;
    800022aa:	0014871b          	addiw	a4,s1,1
    800022ae:	c398                	sw	a4,0(a5)
  release(&pid_lock);
    800022b0:	854a                	mv	a0,s2
    800022b2:	fffff097          	auipc	ra,0xfffff
    800022b6:	9c4080e7          	jalr	-1596(ra) # 80000c76 <release>
}
    800022ba:	8526                	mv	a0,s1
    800022bc:	60e2                	ld	ra,24(sp)
    800022be:	6442                	ld	s0,16(sp)
    800022c0:	64a2                	ld	s1,8(sp)
    800022c2:	6902                	ld	s2,0(sp)
    800022c4:	6105                	addi	sp,sp,32
    800022c6:	8082                	ret

00000000800022c8 <reset_counter>:
reset_counter(){
    800022c8:	1141                	addi	sp,sp,-16
    800022ca:	e422                	sd	s0,8(sp)
    800022cc:	0800                	addi	s0,sp,16
}
    800022ce:	4501                	li	a0,0
    800022d0:	6422                	ld	s0,8(sp)
    800022d2:	0141                	addi	sp,sp,16
    800022d4:	8082                	ret

00000000800022d6 <proc_pagetable>:
{
    800022d6:	1101                	addi	sp,sp,-32
    800022d8:	ec06                	sd	ra,24(sp)
    800022da:	e822                	sd	s0,16(sp)
    800022dc:	e426                	sd	s1,8(sp)
    800022de:	e04a                	sd	s2,0(sp)
    800022e0:	1000                	addi	s0,sp,32
    800022e2:	892a                	mv	s2,a0
  pagetable = uvmcreate();
    800022e4:	fffff097          	auipc	ra,0xfffff
    800022e8:	068080e7          	jalr	104(ra) # 8000134c <uvmcreate>
    800022ec:	84aa                	mv	s1,a0
  if(pagetable == 0)
    800022ee:	c121                	beqz	a0,8000232e <proc_pagetable+0x58>
  if(mappages(pagetable, TRAMPOLINE, PGSIZE,
    800022f0:	4729                	li	a4,10
    800022f2:	00006697          	auipc	a3,0x6
    800022f6:	d0e68693          	addi	a3,a3,-754 # 80008000 <_trampoline>
    800022fa:	6605                	lui	a2,0x1
    800022fc:	040005b7          	lui	a1,0x4000
    80002300:	15fd                	addi	a1,a1,-1
    80002302:	05b2                	slli	a1,a1,0xc
    80002304:	fffff097          	auipc	ra,0xfffff
    80002308:	d8a080e7          	jalr	-630(ra) # 8000108e <mappages>
    8000230c:	02054863          	bltz	a0,8000233c <proc_pagetable+0x66>
  if(mappages(pagetable, TRAPFRAME, PGSIZE,
    80002310:	4719                	li	a4,6
    80002312:	05893683          	ld	a3,88(s2)
    80002316:	6605                	lui	a2,0x1
    80002318:	020005b7          	lui	a1,0x2000
    8000231c:	15fd                	addi	a1,a1,-1
    8000231e:	05b6                	slli	a1,a1,0xd
    80002320:	8526                	mv	a0,s1
    80002322:	fffff097          	auipc	ra,0xfffff
    80002326:	d6c080e7          	jalr	-660(ra) # 8000108e <mappages>
    8000232a:	02054163          	bltz	a0,8000234c <proc_pagetable+0x76>
}
    8000232e:	8526                	mv	a0,s1
    80002330:	60e2                	ld	ra,24(sp)
    80002332:	6442                	ld	s0,16(sp)
    80002334:	64a2                	ld	s1,8(sp)
    80002336:	6902                	ld	s2,0(sp)
    80002338:	6105                	addi	sp,sp,32
    8000233a:	8082                	ret
    uvmfree(pagetable, 0);
    8000233c:	4581                	li	a1,0
    8000233e:	8526                	mv	a0,s1
    80002340:	00000097          	auipc	ra,0x0
    80002344:	a34080e7          	jalr	-1484(ra) # 80001d74 <uvmfree>
    return 0;
    80002348:	4481                	li	s1,0
    8000234a:	b7d5                	j	8000232e <proc_pagetable+0x58>
    uvmunmap(pagetable, TRAMPOLINE, 1, 0);
    8000234c:	4681                	li	a3,0
    8000234e:	4605                	li	a2,1
    80002350:	040005b7          	lui	a1,0x4000
    80002354:	15fd                	addi	a1,a1,-1
    80002356:	05b2                	slli	a1,a1,0xc
    80002358:	8526                	mv	a0,s1
    8000235a:	fffff097          	auipc	ra,0xfffff
    8000235e:	f2e080e7          	jalr	-210(ra) # 80001288 <uvmunmap>
    uvmfree(pagetable, 0);
    80002362:	4581                	li	a1,0
    80002364:	8526                	mv	a0,s1
    80002366:	00000097          	auipc	ra,0x0
    8000236a:	a0e080e7          	jalr	-1522(ra) # 80001d74 <uvmfree>
    return 0;
    8000236e:	4481                	li	s1,0
    80002370:	bf7d                	j	8000232e <proc_pagetable+0x58>

0000000080002372 <proc_freepagetable>:
{
    80002372:	1101                	addi	sp,sp,-32
    80002374:	ec06                	sd	ra,24(sp)
    80002376:	e822                	sd	s0,16(sp)
    80002378:	e426                	sd	s1,8(sp)
    8000237a:	e04a                	sd	s2,0(sp)
    8000237c:	1000                	addi	s0,sp,32
    8000237e:	84aa                	mv	s1,a0
    80002380:	892e                	mv	s2,a1
  uvmunmap(pagetable, TRAMPOLINE, 1, 0);
    80002382:	4681                	li	a3,0
    80002384:	4605                	li	a2,1
    80002386:	040005b7          	lui	a1,0x4000
    8000238a:	15fd                	addi	a1,a1,-1
    8000238c:	05b2                	slli	a1,a1,0xc
    8000238e:	fffff097          	auipc	ra,0xfffff
    80002392:	efa080e7          	jalr	-262(ra) # 80001288 <uvmunmap>
  uvmunmap(pagetable, TRAPFRAME, 1, 0);
    80002396:	4681                	li	a3,0
    80002398:	4605                	li	a2,1
    8000239a:	020005b7          	lui	a1,0x2000
    8000239e:	15fd                	addi	a1,a1,-1
    800023a0:	05b6                	slli	a1,a1,0xd
    800023a2:	8526                	mv	a0,s1
    800023a4:	fffff097          	auipc	ra,0xfffff
    800023a8:	ee4080e7          	jalr	-284(ra) # 80001288 <uvmunmap>
  uvmfree(pagetable, sz);
    800023ac:	85ca                	mv	a1,s2
    800023ae:	8526                	mv	a0,s1
    800023b0:	00000097          	auipc	ra,0x0
    800023b4:	9c4080e7          	jalr	-1596(ra) # 80001d74 <uvmfree>
}
    800023b8:	60e2                	ld	ra,24(sp)
    800023ba:	6442                	ld	s0,16(sp)
    800023bc:	64a2                	ld	s1,8(sp)
    800023be:	6902                	ld	s2,0(sp)
    800023c0:	6105                	addi	sp,sp,32
    800023c2:	8082                	ret

00000000800023c4 <freeproc>:
{
    800023c4:	1101                	addi	sp,sp,-32
    800023c6:	ec06                	sd	ra,24(sp)
    800023c8:	e822                	sd	s0,16(sp)
    800023ca:	e426                	sd	s1,8(sp)
    800023cc:	1000                	addi	s0,sp,32
    800023ce:	84aa                	mv	s1,a0
  if(p->trapframe)
    800023d0:	6d28                	ld	a0,88(a0)
    800023d2:	c509                	beqz	a0,800023dc <freeproc+0x18>
    kfree((void*)p->trapframe);
    800023d4:	ffffe097          	auipc	ra,0xffffe
    800023d8:	602080e7          	jalr	1538(ra) # 800009d6 <kfree>
  p->trapframe = 0;
    800023dc:	0404bc23          	sd	zero,88(s1)
  if(p->pagetable)
    800023e0:	68a8                	ld	a0,80(s1)
    800023e2:	c511                	beqz	a0,800023ee <freeproc+0x2a>
    proc_freepagetable(p->pagetable, p->sz);
    800023e4:	64ac                	ld	a1,72(s1)
    800023e6:	00000097          	auipc	ra,0x0
    800023ea:	f8c080e7          	jalr	-116(ra) # 80002372 <proc_freepagetable>
  p->pagetable = 0;
    800023ee:	0404b823          	sd	zero,80(s1)
  p->sz = 0;
    800023f2:	0404b423          	sd	zero,72(s1)
  p->pid = 0;
    800023f6:	0204a823          	sw	zero,48(s1)
  p->parent = 0;
    800023fa:	0204bc23          	sd	zero,56(s1)
  p->name[0] = 0;
    800023fe:	14048c23          	sb	zero,344(s1)
  p->chan = 0;
    80002402:	0204b023          	sd	zero,32(s1)
  p->killed = 0;
    80002406:	0204a423          	sw	zero,40(s1)
  p->xstate = 0;
    8000240a:	0204a623          	sw	zero,44(s1)
  p->state = UNUSED;
    8000240e:	0004ac23          	sw	zero,24(s1)
}
    80002412:	60e2                	ld	ra,24(sp)
    80002414:	6442                	ld	s0,16(sp)
    80002416:	64a2                	ld	s1,8(sp)
    80002418:	6105                	addi	sp,sp,32
    8000241a:	8082                	ret

000000008000241c <allocproc>:
{
    8000241c:	7179                	addi	sp,sp,-48
    8000241e:	f406                	sd	ra,40(sp)
    80002420:	f022                	sd	s0,32(sp)
    80002422:	ec26                	sd	s1,24(sp)
    80002424:	e84a                	sd	s2,16(sp)
    80002426:	e44e                	sd	s3,8(sp)
    80002428:	1800                	addi	s0,sp,48
  for(p = proc; p < &proc[NPROC]; p++) {
    8000242a:	00011497          	auipc	s1,0x11
    8000242e:	2a648493          	addi	s1,s1,678 # 800136d0 <proc>
    80002432:	0001d997          	auipc	s3,0x1d
    80002436:	29e98993          	addi	s3,s3,670 # 8001f6d0 <tickslock>
    acquire(&p->lock);
    8000243a:	8926                	mv	s2,s1
    8000243c:	8526                	mv	a0,s1
    8000243e:	ffffe097          	auipc	ra,0xffffe
    80002442:	784080e7          	jalr	1924(ra) # 80000bc2 <acquire>
    if(p->state == UNUSED) {
    80002446:	4c9c                	lw	a5,24(s1)
    80002448:	cf81                	beqz	a5,80002460 <allocproc+0x44>
      release(&p->lock);
    8000244a:	8526                	mv	a0,s1
    8000244c:	fffff097          	auipc	ra,0xfffff
    80002450:	82a080e7          	jalr	-2006(ra) # 80000c76 <release>
  for(p = proc; p < &proc[NPROC]; p++) {
    80002454:	30048493          	addi	s1,s1,768
    80002458:	ff3491e3          	bne	s1,s3,8000243a <allocproc+0x1e>
  return 0;
    8000245c:	4481                	li	s1,0
    8000245e:	a069                	j	800024e8 <allocproc+0xcc>
  p->pid = allocpid();
    80002460:	00000097          	auipc	ra,0x0
    80002464:	e22080e7          	jalr	-478(ra) # 80002282 <allocpid>
    80002468:	d888                	sw	a0,48(s1)
  p->state = USED;
    8000246a:	4785                	li	a5,1
    8000246c:	cc9c                	sw	a5,24(s1)
  if (p->pid>2){
    8000246e:	4789                	li	a5,2
    80002470:	08a7c463          	blt	a5,a0,800024f8 <allocproc+0xdc>
    p->swapped_pages.page_counter=0;
    80002474:	2e04ac23          	sw	zero,760(s1)
    p->ram_pages.page_counter=0;
    80002478:	2204aa23          	sw	zero,564(s1)
    p->ram_pages.first_page_in=0; 
    8000247c:	2204a823          	sw	zero,560(s1)
    for (int i=0 ; i<MAX_PSYC_PAGES ; i++){
    80002480:	17048793          	addi	a5,s1,368
    80002484:	23090913          	addi	s2,s2,560
      p->swapped_pages.pages[i].virtual_address = 0;
    80002488:	0c07a423          	sw	zero,200(a5)
      p->swapped_pages.pages[i].is_used = 0;
    8000248c:	0c07a623          	sw	zero,204(a5)
      p->swapped_pages.pages[i].page_counter=reset_counter();
    80002490:	0c07a823          	sw	zero,208(a5)
      p->ram_pages.pages[i].virtual_address = 0;
    80002494:	0007a023          	sw	zero,0(a5)
      p->ram_pages.pages[i].is_used = 0;
    80002498:	0007a223          	sw	zero,4(a5)
      p->ram_pages.pages[i].page_counter = reset_counter();
    8000249c:	0007a423          	sw	zero,8(a5)
    for (int i=0 ; i<MAX_PSYC_PAGES ; i++){
    800024a0:	07b1                	addi	a5,a5,12
    800024a2:	ff2793e3          	bne	a5,s2,80002488 <allocproc+0x6c>
  if((p->trapframe = (struct trapframe *)kalloc()) == 0){
    800024a6:	ffffe097          	auipc	ra,0xffffe
    800024aa:	62c080e7          	jalr	1580(ra) # 80000ad2 <kalloc>
    800024ae:	892a                	mv	s2,a0
    800024b0:	eca8                	sd	a0,88(s1)
    800024b2:	c13d                	beqz	a0,80002518 <allocproc+0xfc>
  p->pagetable = proc_pagetable(p);
    800024b4:	8526                	mv	a0,s1
    800024b6:	00000097          	auipc	ra,0x0
    800024ba:	e20080e7          	jalr	-480(ra) # 800022d6 <proc_pagetable>
    800024be:	892a                	mv	s2,a0
    800024c0:	e8a8                	sd	a0,80(s1)
  if(p->pagetable == 0){
    800024c2:	c53d                	beqz	a0,80002530 <allocproc+0x114>
  memset(&p->context, 0, sizeof(p->context));
    800024c4:	07000613          	li	a2,112
    800024c8:	4581                	li	a1,0
    800024ca:	06048513          	addi	a0,s1,96
    800024ce:	ffffe097          	auipc	ra,0xffffe
    800024d2:	7f0080e7          	jalr	2032(ra) # 80000cbe <memset>
  p->context.ra = (uint64)forkret;
    800024d6:	00000797          	auipc	a5,0x0
    800024da:	d6678793          	addi	a5,a5,-666 # 8000223c <forkret>
    800024de:	f0bc                	sd	a5,96(s1)
  p->context.sp = p->kstack + PGSIZE;
    800024e0:	60bc                	ld	a5,64(s1)
    800024e2:	6705                	lui	a4,0x1
    800024e4:	97ba                	add	a5,a5,a4
    800024e6:	f4bc                	sd	a5,104(s1)
}
    800024e8:	8526                	mv	a0,s1
    800024ea:	70a2                	ld	ra,40(sp)
    800024ec:	7402                	ld	s0,32(sp)
    800024ee:	64e2                	ld	s1,24(sp)
    800024f0:	6942                	ld	s2,16(sp)
    800024f2:	69a2                	ld	s3,8(sp)
    800024f4:	6145                	addi	sp,sp,48
    800024f6:	8082                	ret
    release(&p->lock); 
    800024f8:	8526                	mv	a0,s1
    800024fa:	ffffe097          	auipc	ra,0xffffe
    800024fe:	77c080e7          	jalr	1916(ra) # 80000c76 <release>
    createSwapFile(p);
    80002502:	8526                	mv	a0,s1
    80002504:	00002097          	auipc	ra,0x2
    80002508:	4b8080e7          	jalr	1208(ra) # 800049bc <createSwapFile>
    acquire(&p->lock); 
    8000250c:	8526                	mv	a0,s1
    8000250e:	ffffe097          	auipc	ra,0xffffe
    80002512:	6b4080e7          	jalr	1716(ra) # 80000bc2 <acquire>
    80002516:	bfb9                	j	80002474 <allocproc+0x58>
    freeproc(p);
    80002518:	8526                	mv	a0,s1
    8000251a:	00000097          	auipc	ra,0x0
    8000251e:	eaa080e7          	jalr	-342(ra) # 800023c4 <freeproc>
    release(&p->lock);
    80002522:	8526                	mv	a0,s1
    80002524:	ffffe097          	auipc	ra,0xffffe
    80002528:	752080e7          	jalr	1874(ra) # 80000c76 <release>
    return 0;
    8000252c:	84ca                	mv	s1,s2
    8000252e:	bf6d                	j	800024e8 <allocproc+0xcc>
    freeproc(p);
    80002530:	8526                	mv	a0,s1
    80002532:	00000097          	auipc	ra,0x0
    80002536:	e92080e7          	jalr	-366(ra) # 800023c4 <freeproc>
    release(&p->lock);
    8000253a:	8526                	mv	a0,s1
    8000253c:	ffffe097          	auipc	ra,0xffffe
    80002540:	73a080e7          	jalr	1850(ra) # 80000c76 <release>
    return 0;
    80002544:	84ca                	mv	s1,s2
    80002546:	b74d                	j	800024e8 <allocproc+0xcc>

0000000080002548 <userinit>:
{
    80002548:	1101                	addi	sp,sp,-32
    8000254a:	ec06                	sd	ra,24(sp)
    8000254c:	e822                	sd	s0,16(sp)
    8000254e:	e426                	sd	s1,8(sp)
    80002550:	1000                	addi	s0,sp,32
  p = allocproc();
    80002552:	00000097          	auipc	ra,0x0
    80002556:	eca080e7          	jalr	-310(ra) # 8000241c <allocproc>
    8000255a:	84aa                	mv	s1,a0
  initproc = p;
    8000255c:	00008797          	auipc	a5,0x8
    80002560:	aca7b623          	sd	a0,-1332(a5) # 8000a028 <initproc>
  uvminit(p->pagetable, initcode, sizeof(initcode));
    80002564:	03400613          	li	a2,52
    80002568:	00007597          	auipc	a1,0x7
    8000256c:	78858593          	addi	a1,a1,1928 # 80009cf0 <initcode>
    80002570:	6928                	ld	a0,80(a0)
    80002572:	fffff097          	auipc	ra,0xfffff
    80002576:	e08080e7          	jalr	-504(ra) # 8000137a <uvminit>
  p->sz = PGSIZE;
    8000257a:	6785                	lui	a5,0x1
    8000257c:	e4bc                	sd	a5,72(s1)
  p->trapframe->epc = 0;      // user program counter
    8000257e:	6cb8                	ld	a4,88(s1)
    80002580:	00073c23          	sd	zero,24(a4) # 1018 <_entry-0x7fffefe8>
  p->trapframe->sp = PGSIZE;  // user stack pointer
    80002584:	6cb8                	ld	a4,88(s1)
    80002586:	fb1c                	sd	a5,48(a4)
  safestrcpy(p->name, "initcode", sizeof(p->name));
    80002588:	4641                	li	a2,16
    8000258a:	00007597          	auipc	a1,0x7
    8000258e:	09658593          	addi	a1,a1,150 # 80009620 <digits+0x5e0>
    80002592:	15848513          	addi	a0,s1,344
    80002596:	fffff097          	auipc	ra,0xfffff
    8000259a:	87a080e7          	jalr	-1926(ra) # 80000e10 <safestrcpy>
  p->cwd = namei("/");
    8000259e:	00007517          	auipc	a0,0x7
    800025a2:	09250513          	addi	a0,a0,146 # 80009630 <digits+0x5f0>
    800025a6:	00002097          	auipc	ra,0x2
    800025aa:	1c2080e7          	jalr	450(ra) # 80004768 <namei>
    800025ae:	14a4b823          	sd	a0,336(s1)
  p->state = RUNNABLE;
    800025b2:	478d                	li	a5,3
    800025b4:	cc9c                	sw	a5,24(s1)
  release(&p->lock);
    800025b6:	8526                	mv	a0,s1
    800025b8:	ffffe097          	auipc	ra,0xffffe
    800025bc:	6be080e7          	jalr	1726(ra) # 80000c76 <release>
}
    800025c0:	60e2                	ld	ra,24(sp)
    800025c2:	6442                	ld	s0,16(sp)
    800025c4:	64a2                	ld	s1,8(sp)
    800025c6:	6105                	addi	sp,sp,32
    800025c8:	8082                	ret

00000000800025ca <growproc>:
{
    800025ca:	7179                	addi	sp,sp,-48
    800025cc:	f406                	sd	ra,40(sp)
    800025ce:	f022                	sd	s0,32(sp)
    800025d0:	ec26                	sd	s1,24(sp)
    800025d2:	e84a                	sd	s2,16(sp)
    800025d4:	e44e                	sd	s3,8(sp)
    800025d6:	e052                	sd	s4,0(sp)
    800025d8:	1800                	addi	s0,sp,48
    800025da:	892a                	mv	s2,a0
  struct proc *p = myproc();
    800025dc:	00000097          	auipc	ra,0x0
    800025e0:	c28080e7          	jalr	-984(ra) # 80002204 <myproc>
    800025e4:	89aa                	mv	s3,a0
  sz = p->sz;
    800025e6:	04853a03          	ld	s4,72(a0)
    800025ea:	000a049b          	sext.w	s1,s4
  if(n > 0){
    800025ee:	03204163          	bgtz	s2,80002610 <growproc+0x46>
  } else if(n < 0){
    800025f2:	04094963          	bltz	s2,80002644 <growproc+0x7a>
  p->sz = sz;
    800025f6:	1482                	slli	s1,s1,0x20
    800025f8:	9081                	srli	s1,s1,0x20
    800025fa:	0499b423          	sd	s1,72(s3)
  return 0;
    800025fe:	4501                	li	a0,0
}
    80002600:	70a2                	ld	ra,40(sp)
    80002602:	7402                	ld	s0,32(sp)
    80002604:	64e2                	ld	s1,24(sp)
    80002606:	6942                	ld	s2,16(sp)
    80002608:	69a2                	ld	s3,8(sp)
    8000260a:	6a02                	ld	s4,0(sp)
    8000260c:	6145                	addi	sp,sp,48
    8000260e:	8082                	ret
    printf("Call uvmalloc from growproc, line 281"); 
    80002610:	00007517          	auipc	a0,0x7
    80002614:	02850513          	addi	a0,a0,40 # 80009638 <digits+0x5f8>
    80002618:	ffffe097          	auipc	ra,0xffffe
    8000261c:	f5c080e7          	jalr	-164(ra) # 80000574 <printf>
    if((sz = uvmalloc(p->pagetable, sz, sz + n)) == 0) {
    80002620:	0099063b          	addw	a2,s2,s1
    80002624:	1602                	slli	a2,a2,0x20
    80002626:	9201                	srli	a2,a2,0x20
    80002628:	020a1593          	slli	a1,s4,0x20
    8000262c:	9181                	srli	a1,a1,0x20
    8000262e:	0509b503          	ld	a0,80(s3)
    80002632:	fffff097          	auipc	ra,0xfffff
    80002636:	4ba080e7          	jalr	1210(ra) # 80001aec <uvmalloc>
    8000263a:	0005049b          	sext.w	s1,a0
    8000263e:	fcc5                	bnez	s1,800025f6 <growproc+0x2c>
      return -1;
    80002640:	557d                	li	a0,-1
    80002642:	bf7d                	j	80002600 <growproc+0x36>
    sz = uvmdealloc(p->pagetable, sz, sz + n);
    80002644:	0099063b          	addw	a2,s2,s1
    80002648:	1602                	slli	a2,a2,0x20
    8000264a:	9201                	srli	a2,a2,0x20
    8000264c:	020a1593          	slli	a1,s4,0x20
    80002650:	9181                	srli	a1,a1,0x20
    80002652:	6928                	ld	a0,80(a0)
    80002654:	fffff097          	auipc	ra,0xfffff
    80002658:	138080e7          	jalr	312(ra) # 8000178c <uvmdealloc>
    8000265c:	0005049b          	sext.w	s1,a0
    80002660:	bf59                	j	800025f6 <growproc+0x2c>

0000000080002662 <fork>:
{
    80002662:	711d                	addi	sp,sp,-96
    80002664:	ec86                	sd	ra,88(sp)
    80002666:	e8a2                	sd	s0,80(sp)
    80002668:	e4a6                	sd	s1,72(sp)
    8000266a:	e0ca                	sd	s2,64(sp)
    8000266c:	fc4e                	sd	s3,56(sp)
    8000266e:	f852                	sd	s4,48(sp)
    80002670:	f456                	sd	s5,40(sp)
    80002672:	f05a                	sd	s6,32(sp)
    80002674:	ec5e                	sd	s7,24(sp)
    80002676:	e862                	sd	s8,16(sp)
    80002678:	e466                	sd	s9,8(sp)
    8000267a:	1080                	addi	s0,sp,96
  struct proc *p = myproc();
    8000267c:	00000097          	auipc	ra,0x0
    80002680:	b88080e7          	jalr	-1144(ra) # 80002204 <myproc>
    80002684:	8aaa                	mv	s5,a0
  if((np = allocproc()) == 0){
    80002686:	00000097          	auipc	ra,0x0
    8000268a:	d96080e7          	jalr	-618(ra) # 8000241c <allocproc>
    8000268e:	1a050a63          	beqz	a0,80002842 <fork+0x1e0>
    80002692:	8a2a                	mv	s4,a0
  if(uvmcopy(p->pagetable, np->pagetable, p->sz) < 0){
    80002694:	048ab603          	ld	a2,72(s5)
    80002698:	692c                	ld	a1,80(a0)
    8000269a:	050ab503          	ld	a0,80(s5)
    8000269e:	fffff097          	auipc	ra,0xfffff
    800026a2:	70e080e7          	jalr	1806(ra) # 80001dac <uvmcopy>
    800026a6:	04054863          	bltz	a0,800026f6 <fork+0x94>
  np->sz = p->sz;
    800026aa:	048ab783          	ld	a5,72(s5)
    800026ae:	04fa3423          	sd	a5,72(s4)
  *(np->trapframe) = *(p->trapframe);
    800026b2:	058ab683          	ld	a3,88(s5)
    800026b6:	87b6                	mv	a5,a3
    800026b8:	058a3703          	ld	a4,88(s4)
    800026bc:	12068693          	addi	a3,a3,288
    800026c0:	0007b803          	ld	a6,0(a5) # 1000 <_entry-0x7ffff000>
    800026c4:	6788                	ld	a0,8(a5)
    800026c6:	6b8c                	ld	a1,16(a5)
    800026c8:	6f90                	ld	a2,24(a5)
    800026ca:	01073023          	sd	a6,0(a4)
    800026ce:	e708                	sd	a0,8(a4)
    800026d0:	eb0c                	sd	a1,16(a4)
    800026d2:	ef10                	sd	a2,24(a4)
    800026d4:	02078793          	addi	a5,a5,32
    800026d8:	02070713          	addi	a4,a4,32
    800026dc:	fed792e3          	bne	a5,a3,800026c0 <fork+0x5e>
  np->trapframe->a0 = 0;
    800026e0:	058a3783          	ld	a5,88(s4)
    800026e4:	0607b823          	sd	zero,112(a5)
  for(i = 0; i < NOFILE; i++)
    800026e8:	0d0a8493          	addi	s1,s5,208
    800026ec:	0d0a0913          	addi	s2,s4,208
    800026f0:	150a8993          	addi	s3,s5,336
    800026f4:	a00d                	j	80002716 <fork+0xb4>
    freeproc(np);
    800026f6:	8552                	mv	a0,s4
    800026f8:	00000097          	auipc	ra,0x0
    800026fc:	ccc080e7          	jalr	-820(ra) # 800023c4 <freeproc>
    release(&np->lock);
    80002700:	8552                	mv	a0,s4
    80002702:	ffffe097          	auipc	ra,0xffffe
    80002706:	574080e7          	jalr	1396(ra) # 80000c76 <release>
    return -1;
    8000270a:	5cfd                	li	s9,-1
    8000270c:	aa29                	j	80002826 <fork+0x1c4>
  for(i = 0; i < NOFILE; i++)
    8000270e:	04a1                	addi	s1,s1,8
    80002710:	0921                	addi	s2,s2,8
    80002712:	01348b63          	beq	s1,s3,80002728 <fork+0xc6>
    if(p->ofile[i])
    80002716:	6088                	ld	a0,0(s1)
    80002718:	d97d                	beqz	a0,8000270e <fork+0xac>
      np->ofile[i] = filedup(p->ofile[i]);
    8000271a:	00003097          	auipc	ra,0x3
    8000271e:	9fa080e7          	jalr	-1542(ra) # 80005114 <filedup>
    80002722:	00a93023          	sd	a0,0(s2)
    80002726:	b7e5                	j	8000270e <fork+0xac>
  np->cwd = idup(p->cwd);
    80002728:	150ab503          	ld	a0,336(s5)
    8000272c:	00002097          	auipc	ra,0x2
    80002730:	848080e7          	jalr	-1976(ra) # 80003f74 <idup>
    80002734:	14aa3823          	sd	a0,336(s4)
  safestrcpy(np->name, p->name, sizeof(p->name));
    80002738:	4641                	li	a2,16
    8000273a:	158a8593          	addi	a1,s5,344
    8000273e:	158a0513          	addi	a0,s4,344
    80002742:	ffffe097          	auipc	ra,0xffffe
    80002746:	6ce080e7          	jalr	1742(ra) # 80000e10 <safestrcpy>
  pid = np->pid;
    8000274a:	030a2c83          	lw	s9,48(s4)
  release(&np->lock);
    8000274e:	8552                	mv	a0,s4
    80002750:	ffffe097          	auipc	ra,0xffffe
    80002754:	526080e7          	jalr	1318(ra) # 80000c76 <release>
  if(p->pid > 2) {
    80002758:	030aa703          	lw	a4,48(s5)
    8000275c:	4789                	li	a5,2
    8000275e:	08e7d763          	bge	a5,a4,800027ec <fork+0x18a>
    np->swapped_pages.page_counter = p->swapped_pages.page_counter;
    80002762:	2f8aa783          	lw	a5,760(s5)
    80002766:	2efa2c23          	sw	a5,760(s4)
    np->ram_pages.page_counter = p->ram_pages.page_counter;
    8000276a:	234aa783          	lw	a5,564(s5)
    8000276e:	22fa2a23          	sw	a5,564(s4)
    np->ram_pages.first_page_in = p->ram_pages.page_counter; 
    80002772:	22fa2823          	sw	a5,560(s4)
    for (int i=0 ; i<MAX_PSYC_PAGES ; i++){
    80002776:	170a8493          	addi	s1,s5,368
    8000277a:	170a0913          	addi	s2,s4,368
    8000277e:	230a8b93          	addi	s7,s5,560
    np->ram_pages.first_page_in = p->ram_pages.page_counter; 
    80002782:	4981                	li	s3,0
        readFromSwapFile(p, buffer, i*PGSIZE, (PGSIZE));
    80002784:	00010c17          	auipc	s8,0x10
    80002788:	f4cc0c13          	addi	s8,s8,-180 # 800126d0 <buffer>
    for (int i=0 ; i<MAX_PSYC_PAGES ; i++){
    8000278c:	6b05                	lui	s6,0x1
    8000278e:	a03d                	j	800027bc <fork+0x15a>
        readFromSwapFile(p, buffer, i*PGSIZE, (PGSIZE));
    80002790:	6685                	lui	a3,0x1
    80002792:	864e                	mv	a2,s3
    80002794:	85e2                	mv	a1,s8
    80002796:	8556                	mv	a0,s5
    80002798:	00002097          	auipc	ra,0x2
    8000279c:	2f8080e7          	jalr	760(ra) # 80004a90 <readFromSwapFile>
        writeToSwapFile(np, buffer, i*PGSIZE, (PGSIZE));
    800027a0:	6685                	lui	a3,0x1
    800027a2:	864e                	mv	a2,s3
    800027a4:	85e2                	mv	a1,s8
    800027a6:	8552                	mv	a0,s4
    800027a8:	00002097          	auipc	ra,0x2
    800027ac:	2c4080e7          	jalr	708(ra) # 80004a6c <writeToSwapFile>
    for (int i=0 ; i<MAX_PSYC_PAGES ; i++){
    800027b0:	04b1                	addi	s1,s1,12
    800027b2:	0931                	addi	s2,s2,12
    800027b4:	013b09bb          	addw	s3,s6,s3
    800027b8:	03748a63          	beq	s1,s7,800027ec <fork+0x18a>
      np->swapped_pages.pages[i].virtual_address = p->swapped_pages.pages[i].virtual_address;
    800027bc:	0c84a783          	lw	a5,200(s1)
    800027c0:	0cf92423          	sw	a5,200(s2)
      np->swapped_pages.pages[i].is_used = p->swapped_pages.pages[i].is_used;
    800027c4:	0cc4a783          	lw	a5,204(s1)
    800027c8:	0cf92623          	sw	a5,204(s2)
      np->swapped_pages.pages[i].page_counter = p->swapped_pages.pages[i].page_counter;
    800027cc:	0d04a783          	lw	a5,208(s1)
    800027d0:	0cf92823          	sw	a5,208(s2)
      np->ram_pages.pages[i].virtual_address = p->ram_pages.pages[i].virtual_address;
    800027d4:	409c                	lw	a5,0(s1)
    800027d6:	00f92023          	sw	a5,0(s2)
      np->ram_pages.pages[i].is_used = p->ram_pages.pages[i].is_used;
    800027da:	40dc                	lw	a5,4(s1)
    800027dc:	00f92223          	sw	a5,4(s2)
      np->ram_pages.pages[i].page_counter = p->ram_pages.pages[i].page_counter;
    800027e0:	449c                	lw	a5,8(s1)
    800027e2:	00f92423          	sw	a5,8(s2)
      if (p->ram_pages.pages[i].is_used){
    800027e6:	40dc                	lw	a5,4(s1)
    800027e8:	d7e1                	beqz	a5,800027b0 <fork+0x14e>
    800027ea:	b75d                	j	80002790 <fork+0x12e>
  acquire(&wait_lock);
    800027ec:	00010497          	auipc	s1,0x10
    800027f0:	acc48493          	addi	s1,s1,-1332 # 800122b8 <wait_lock>
    800027f4:	8526                	mv	a0,s1
    800027f6:	ffffe097          	auipc	ra,0xffffe
    800027fa:	3cc080e7          	jalr	972(ra) # 80000bc2 <acquire>
  np->parent = p;
    800027fe:	035a3c23          	sd	s5,56(s4)
  release(&wait_lock);
    80002802:	8526                	mv	a0,s1
    80002804:	ffffe097          	auipc	ra,0xffffe
    80002808:	472080e7          	jalr	1138(ra) # 80000c76 <release>
  acquire(&np->lock);
    8000280c:	8552                	mv	a0,s4
    8000280e:	ffffe097          	auipc	ra,0xffffe
    80002812:	3b4080e7          	jalr	948(ra) # 80000bc2 <acquire>
  np->state = RUNNABLE;
    80002816:	478d                	li	a5,3
    80002818:	00fa2c23          	sw	a5,24(s4)
  release(&np->lock);
    8000281c:	8552                	mv	a0,s4
    8000281e:	ffffe097          	auipc	ra,0xffffe
    80002822:	458080e7          	jalr	1112(ra) # 80000c76 <release>
}
    80002826:	8566                	mv	a0,s9
    80002828:	60e6                	ld	ra,88(sp)
    8000282a:	6446                	ld	s0,80(sp)
    8000282c:	64a6                	ld	s1,72(sp)
    8000282e:	6906                	ld	s2,64(sp)
    80002830:	79e2                	ld	s3,56(sp)
    80002832:	7a42                	ld	s4,48(sp)
    80002834:	7aa2                	ld	s5,40(sp)
    80002836:	7b02                	ld	s6,32(sp)
    80002838:	6be2                	ld	s7,24(sp)
    8000283a:	6c42                	ld	s8,16(sp)
    8000283c:	6ca2                	ld	s9,8(sp)
    8000283e:	6125                	addi	sp,sp,96
    80002840:	8082                	ret
    return -1;
    80002842:	5cfd                	li	s9,-1
    80002844:	b7cd                	j	80002826 <fork+0x1c4>

0000000080002846 <scheduler>:
{
    80002846:	7139                	addi	sp,sp,-64
    80002848:	fc06                	sd	ra,56(sp)
    8000284a:	f822                	sd	s0,48(sp)
    8000284c:	f426                	sd	s1,40(sp)
    8000284e:	f04a                	sd	s2,32(sp)
    80002850:	ec4e                	sd	s3,24(sp)
    80002852:	e852                	sd	s4,16(sp)
    80002854:	e456                	sd	s5,8(sp)
    80002856:	e05a                	sd	s6,0(sp)
    80002858:	0080                	addi	s0,sp,64
    8000285a:	8792                	mv	a5,tp
  int id = r_tp();
    8000285c:	2781                	sext.w	a5,a5
  c->proc = 0;
    8000285e:	00779a93          	slli	s5,a5,0x7
    80002862:	00010717          	auipc	a4,0x10
    80002866:	a3e70713          	addi	a4,a4,-1474 # 800122a0 <pid_lock>
    8000286a:	9756                	add	a4,a4,s5
    8000286c:	02073823          	sd	zero,48(a4)
        swtch(&c->context, &p->context);
    80002870:	00010717          	auipc	a4,0x10
    80002874:	a6870713          	addi	a4,a4,-1432 # 800122d8 <cpus+0x8>
    80002878:	9aba                	add	s5,s5,a4
      if(p->state == RUNNABLE) {
    8000287a:	498d                	li	s3,3
        p->state = RUNNING;
    8000287c:	4b11                	li	s6,4
        c->proc = p;
    8000287e:	079e                	slli	a5,a5,0x7
    80002880:	00010a17          	auipc	s4,0x10
    80002884:	a20a0a13          	addi	s4,s4,-1504 # 800122a0 <pid_lock>
    80002888:	9a3e                	add	s4,s4,a5
    for(p = proc; p < &proc[NPROC]; p++) {
    8000288a:	0001d917          	auipc	s2,0x1d
    8000288e:	e4690913          	addi	s2,s2,-442 # 8001f6d0 <tickslock>
  asm volatile("csrr %0, sstatus" : "=r" (x) );
    80002892:	100027f3          	csrr	a5,sstatus
  w_sstatus(r_sstatus() | SSTATUS_SIE);
    80002896:	0027e793          	ori	a5,a5,2
  asm volatile("csrw sstatus, %0" : : "r" (x));
    8000289a:	10079073          	csrw	sstatus,a5
    8000289e:	00011497          	auipc	s1,0x11
    800028a2:	e3248493          	addi	s1,s1,-462 # 800136d0 <proc>
    800028a6:	a811                	j	800028ba <scheduler+0x74>
      release(&p->lock);
    800028a8:	8526                	mv	a0,s1
    800028aa:	ffffe097          	auipc	ra,0xffffe
    800028ae:	3cc080e7          	jalr	972(ra) # 80000c76 <release>
    for(p = proc; p < &proc[NPROC]; p++) {
    800028b2:	30048493          	addi	s1,s1,768
    800028b6:	fd248ee3          	beq	s1,s2,80002892 <scheduler+0x4c>
      acquire(&p->lock);
    800028ba:	8526                	mv	a0,s1
    800028bc:	ffffe097          	auipc	ra,0xffffe
    800028c0:	306080e7          	jalr	774(ra) # 80000bc2 <acquire>
      if(p->state == RUNNABLE) {
    800028c4:	4c9c                	lw	a5,24(s1)
    800028c6:	ff3791e3          	bne	a5,s3,800028a8 <scheduler+0x62>
        p->state = RUNNING;
    800028ca:	0164ac23          	sw	s6,24(s1)
        c->proc = p;
    800028ce:	029a3823          	sd	s1,48(s4)
        swtch(&c->context, &p->context);
    800028d2:	06048593          	addi	a1,s1,96
    800028d6:	8556                	mv	a0,s5
    800028d8:	00000097          	auipc	ra,0x0
    800028dc:	63e080e7          	jalr	1598(ra) # 80002f16 <swtch>
          update_pages_counters();
    800028e0:	fffff097          	auipc	ra,0xfffff
    800028e4:	b0c080e7          	jalr	-1268(ra) # 800013ec <update_pages_counters>
        c->proc = 0;
    800028e8:	020a3823          	sd	zero,48(s4)
    800028ec:	bf75                	j	800028a8 <scheduler+0x62>

00000000800028ee <sched>:
{
    800028ee:	7179                	addi	sp,sp,-48
    800028f0:	f406                	sd	ra,40(sp)
    800028f2:	f022                	sd	s0,32(sp)
    800028f4:	ec26                	sd	s1,24(sp)
    800028f6:	e84a                	sd	s2,16(sp)
    800028f8:	e44e                	sd	s3,8(sp)
    800028fa:	1800                	addi	s0,sp,48
  struct proc *p = myproc();
    800028fc:	00000097          	auipc	ra,0x0
    80002900:	908080e7          	jalr	-1784(ra) # 80002204 <myproc>
    80002904:	84aa                	mv	s1,a0
  if(!holding(&p->lock))
    80002906:	ffffe097          	auipc	ra,0xffffe
    8000290a:	242080e7          	jalr	578(ra) # 80000b48 <holding>
    8000290e:	c93d                	beqz	a0,80002984 <sched+0x96>
  asm volatile("mv %0, tp" : "=r" (x) );
    80002910:	8792                	mv	a5,tp
  if(mycpu()->noff != 1)
    80002912:	2781                	sext.w	a5,a5
    80002914:	079e                	slli	a5,a5,0x7
    80002916:	00010717          	auipc	a4,0x10
    8000291a:	98a70713          	addi	a4,a4,-1654 # 800122a0 <pid_lock>
    8000291e:	97ba                	add	a5,a5,a4
    80002920:	0a87a703          	lw	a4,168(a5)
    80002924:	4785                	li	a5,1
    80002926:	06f71763          	bne	a4,a5,80002994 <sched+0xa6>
  if(p->state == RUNNING)
    8000292a:	4c98                	lw	a4,24(s1)
    8000292c:	4791                	li	a5,4
    8000292e:	06f70b63          	beq	a4,a5,800029a4 <sched+0xb6>
  asm volatile("csrr %0, sstatus" : "=r" (x) );
    80002932:	100027f3          	csrr	a5,sstatus
  return (x & SSTATUS_SIE) != 0;
    80002936:	8b89                	andi	a5,a5,2
  if(intr_get())
    80002938:	efb5                	bnez	a5,800029b4 <sched+0xc6>
  asm volatile("mv %0, tp" : "=r" (x) );
    8000293a:	8792                	mv	a5,tp
  intena = mycpu()->intena;
    8000293c:	00010917          	auipc	s2,0x10
    80002940:	96490913          	addi	s2,s2,-1692 # 800122a0 <pid_lock>
    80002944:	2781                	sext.w	a5,a5
    80002946:	079e                	slli	a5,a5,0x7
    80002948:	97ca                	add	a5,a5,s2
    8000294a:	0ac7a983          	lw	s3,172(a5)
    8000294e:	8792                	mv	a5,tp
  swtch(&p->context, &mycpu()->context);
    80002950:	2781                	sext.w	a5,a5
    80002952:	079e                	slli	a5,a5,0x7
    80002954:	00010597          	auipc	a1,0x10
    80002958:	98458593          	addi	a1,a1,-1660 # 800122d8 <cpus+0x8>
    8000295c:	95be                	add	a1,a1,a5
    8000295e:	06048513          	addi	a0,s1,96
    80002962:	00000097          	auipc	ra,0x0
    80002966:	5b4080e7          	jalr	1460(ra) # 80002f16 <swtch>
    8000296a:	8792                	mv	a5,tp
  mycpu()->intena = intena;
    8000296c:	2781                	sext.w	a5,a5
    8000296e:	079e                	slli	a5,a5,0x7
    80002970:	97ca                	add	a5,a5,s2
    80002972:	0b37a623          	sw	s3,172(a5)
}
    80002976:	70a2                	ld	ra,40(sp)
    80002978:	7402                	ld	s0,32(sp)
    8000297a:	64e2                	ld	s1,24(sp)
    8000297c:	6942                	ld	s2,16(sp)
    8000297e:	69a2                	ld	s3,8(sp)
    80002980:	6145                	addi	sp,sp,48
    80002982:	8082                	ret
    panic("sched p->lock");
    80002984:	00007517          	auipc	a0,0x7
    80002988:	cdc50513          	addi	a0,a0,-804 # 80009660 <digits+0x620>
    8000298c:	ffffe097          	auipc	ra,0xffffe
    80002990:	b9e080e7          	jalr	-1122(ra) # 8000052a <panic>
    panic("sched locks");
    80002994:	00007517          	auipc	a0,0x7
    80002998:	cdc50513          	addi	a0,a0,-804 # 80009670 <digits+0x630>
    8000299c:	ffffe097          	auipc	ra,0xffffe
    800029a0:	b8e080e7          	jalr	-1138(ra) # 8000052a <panic>
    panic("sched running");
    800029a4:	00007517          	auipc	a0,0x7
    800029a8:	cdc50513          	addi	a0,a0,-804 # 80009680 <digits+0x640>
    800029ac:	ffffe097          	auipc	ra,0xffffe
    800029b0:	b7e080e7          	jalr	-1154(ra) # 8000052a <panic>
    panic("sched interruptible");
    800029b4:	00007517          	auipc	a0,0x7
    800029b8:	cdc50513          	addi	a0,a0,-804 # 80009690 <digits+0x650>
    800029bc:	ffffe097          	auipc	ra,0xffffe
    800029c0:	b6e080e7          	jalr	-1170(ra) # 8000052a <panic>

00000000800029c4 <yield>:
{
    800029c4:	1101                	addi	sp,sp,-32
    800029c6:	ec06                	sd	ra,24(sp)
    800029c8:	e822                	sd	s0,16(sp)
    800029ca:	e426                	sd	s1,8(sp)
    800029cc:	1000                	addi	s0,sp,32
  struct proc *p = myproc();
    800029ce:	00000097          	auipc	ra,0x0
    800029d2:	836080e7          	jalr	-1994(ra) # 80002204 <myproc>
    800029d6:	84aa                	mv	s1,a0
  acquire(&p->lock);
    800029d8:	ffffe097          	auipc	ra,0xffffe
    800029dc:	1ea080e7          	jalr	490(ra) # 80000bc2 <acquire>
  p->state = RUNNABLE;
    800029e0:	478d                	li	a5,3
    800029e2:	cc9c                	sw	a5,24(s1)
  sched();
    800029e4:	00000097          	auipc	ra,0x0
    800029e8:	f0a080e7          	jalr	-246(ra) # 800028ee <sched>
  release(&p->lock);
    800029ec:	8526                	mv	a0,s1
    800029ee:	ffffe097          	auipc	ra,0xffffe
    800029f2:	288080e7          	jalr	648(ra) # 80000c76 <release>
}
    800029f6:	60e2                	ld	ra,24(sp)
    800029f8:	6442                	ld	s0,16(sp)
    800029fa:	64a2                	ld	s1,8(sp)
    800029fc:	6105                	addi	sp,sp,32
    800029fe:	8082                	ret

0000000080002a00 <sleep>:

// Atomically release lock and sleep on chan.
// Reacquires lock when awakened.
void
sleep(void *chan, struct spinlock *lk)
{
    80002a00:	7179                	addi	sp,sp,-48
    80002a02:	f406                	sd	ra,40(sp)
    80002a04:	f022                	sd	s0,32(sp)
    80002a06:	ec26                	sd	s1,24(sp)
    80002a08:	e84a                	sd	s2,16(sp)
    80002a0a:	e44e                	sd	s3,8(sp)
    80002a0c:	1800                	addi	s0,sp,48
    80002a0e:	89aa                	mv	s3,a0
    80002a10:	892e                	mv	s2,a1
  struct proc *p = myproc();
    80002a12:	fffff097          	auipc	ra,0xfffff
    80002a16:	7f2080e7          	jalr	2034(ra) # 80002204 <myproc>
    80002a1a:	84aa                	mv	s1,a0
  // Once we hold p->lock, we can be
  // guaranteed that we won't miss any wakeup
  // (wakeup locks p->lock),
  // so it's okay to release lk.

  acquire(&p->lock);  //DOC: sleeplock1
    80002a1c:	ffffe097          	auipc	ra,0xffffe
    80002a20:	1a6080e7          	jalr	422(ra) # 80000bc2 <acquire>
  release(lk);
    80002a24:	854a                	mv	a0,s2
    80002a26:	ffffe097          	auipc	ra,0xffffe
    80002a2a:	250080e7          	jalr	592(ra) # 80000c76 <release>

  // Go to sleep.
  p->chan = chan;
    80002a2e:	0334b023          	sd	s3,32(s1)
  p->state = SLEEPING;
    80002a32:	4789                	li	a5,2
    80002a34:	cc9c                	sw	a5,24(s1)

  sched();
    80002a36:	00000097          	auipc	ra,0x0
    80002a3a:	eb8080e7          	jalr	-328(ra) # 800028ee <sched>

  // Tidy up.
  p->chan = 0;
    80002a3e:	0204b023          	sd	zero,32(s1)

  // Reacquire original lock.
  release(&p->lock);
    80002a42:	8526                	mv	a0,s1
    80002a44:	ffffe097          	auipc	ra,0xffffe
    80002a48:	232080e7          	jalr	562(ra) # 80000c76 <release>
  acquire(lk);
    80002a4c:	854a                	mv	a0,s2
    80002a4e:	ffffe097          	auipc	ra,0xffffe
    80002a52:	174080e7          	jalr	372(ra) # 80000bc2 <acquire>
}
    80002a56:	70a2                	ld	ra,40(sp)
    80002a58:	7402                	ld	s0,32(sp)
    80002a5a:	64e2                	ld	s1,24(sp)
    80002a5c:	6942                	ld	s2,16(sp)
    80002a5e:	69a2                	ld	s3,8(sp)
    80002a60:	6145                	addi	sp,sp,48
    80002a62:	8082                	ret

0000000080002a64 <wait>:
{
    80002a64:	715d                	addi	sp,sp,-80
    80002a66:	e486                	sd	ra,72(sp)
    80002a68:	e0a2                	sd	s0,64(sp)
    80002a6a:	fc26                	sd	s1,56(sp)
    80002a6c:	f84a                	sd	s2,48(sp)
    80002a6e:	f44e                	sd	s3,40(sp)
    80002a70:	f052                	sd	s4,32(sp)
    80002a72:	ec56                	sd	s5,24(sp)
    80002a74:	e85a                	sd	s6,16(sp)
    80002a76:	e45e                	sd	s7,8(sp)
    80002a78:	e062                	sd	s8,0(sp)
    80002a7a:	0880                	addi	s0,sp,80
    80002a7c:	8b2a                	mv	s6,a0
  struct proc *p = myproc();
    80002a7e:	fffff097          	auipc	ra,0xfffff
    80002a82:	786080e7          	jalr	1926(ra) # 80002204 <myproc>
    80002a86:	892a                	mv	s2,a0
  acquire(&wait_lock);
    80002a88:	00010517          	auipc	a0,0x10
    80002a8c:	83050513          	addi	a0,a0,-2000 # 800122b8 <wait_lock>
    80002a90:	ffffe097          	auipc	ra,0xffffe
    80002a94:	132080e7          	jalr	306(ra) # 80000bc2 <acquire>
    havekids = 0;
    80002a98:	4b81                	li	s7,0
        if(np->state == ZOMBIE){
    80002a9a:	4a15                	li	s4,5
        havekids = 1;
    80002a9c:	4a85                	li	s5,1
    for(np = proc; np < &proc[NPROC]; np++){
    80002a9e:	0001d997          	auipc	s3,0x1d
    80002aa2:	c3298993          	addi	s3,s3,-974 # 8001f6d0 <tickslock>
    sleep(p, &wait_lock);  //DOC: wait-sleep
    80002aa6:	00010c17          	auipc	s8,0x10
    80002aaa:	812c0c13          	addi	s8,s8,-2030 # 800122b8 <wait_lock>
    havekids = 0;
    80002aae:	875e                	mv	a4,s7
    for(np = proc; np < &proc[NPROC]; np++){
    80002ab0:	00011497          	auipc	s1,0x11
    80002ab4:	c2048493          	addi	s1,s1,-992 # 800136d0 <proc>
    80002ab8:	a0bd                	j	80002b26 <wait+0xc2>
          pid = np->pid;
    80002aba:	0304a983          	lw	s3,48(s1)
          if(addr != 0 && copyout(p->pagetable, addr, (char *)&np->xstate,
    80002abe:	000b0e63          	beqz	s6,80002ada <wait+0x76>
    80002ac2:	4691                	li	a3,4
    80002ac4:	02c48613          	addi	a2,s1,44
    80002ac8:	85da                	mv	a1,s6
    80002aca:	05093503          	ld	a0,80(s2)
    80002ace:	fffff097          	auipc	ra,0xfffff
    80002ad2:	3f6080e7          	jalr	1014(ra) # 80001ec4 <copyout>
    80002ad6:	02054563          	bltz	a0,80002b00 <wait+0x9c>
          freeproc(np);
    80002ada:	8526                	mv	a0,s1
    80002adc:	00000097          	auipc	ra,0x0
    80002ae0:	8e8080e7          	jalr	-1816(ra) # 800023c4 <freeproc>
          release(&np->lock);
    80002ae4:	8526                	mv	a0,s1
    80002ae6:	ffffe097          	auipc	ra,0xffffe
    80002aea:	190080e7          	jalr	400(ra) # 80000c76 <release>
          release(&wait_lock);
    80002aee:	0000f517          	auipc	a0,0xf
    80002af2:	7ca50513          	addi	a0,a0,1994 # 800122b8 <wait_lock>
    80002af6:	ffffe097          	auipc	ra,0xffffe
    80002afa:	180080e7          	jalr	384(ra) # 80000c76 <release>
          return pid;
    80002afe:	a09d                	j	80002b64 <wait+0x100>
            release(&np->lock);
    80002b00:	8526                	mv	a0,s1
    80002b02:	ffffe097          	auipc	ra,0xffffe
    80002b06:	174080e7          	jalr	372(ra) # 80000c76 <release>
            release(&wait_lock);
    80002b0a:	0000f517          	auipc	a0,0xf
    80002b0e:	7ae50513          	addi	a0,a0,1966 # 800122b8 <wait_lock>
    80002b12:	ffffe097          	auipc	ra,0xffffe
    80002b16:	164080e7          	jalr	356(ra) # 80000c76 <release>
            return -1;
    80002b1a:	59fd                	li	s3,-1
    80002b1c:	a0a1                	j	80002b64 <wait+0x100>
    for(np = proc; np < &proc[NPROC]; np++){
    80002b1e:	30048493          	addi	s1,s1,768
    80002b22:	03348463          	beq	s1,s3,80002b4a <wait+0xe6>
      if(np->parent == p){
    80002b26:	7c9c                	ld	a5,56(s1)
